Certificate:
    Data:
        Version: 3 (0x2)
        Serial Number: 1 (0x1)
        Signature Algorithm: sha256WithRSAEncryption
        Issuer: C=MX, ST=Durango, L=Durango, O=Dingo, OU=Development, CN=Test CA
        Validity
            Not Before: Dec 15 14:18:32 2025 GMT
            Not After : Sep 14 14:18:32 2035 GMT
        Subject: C=MX, ST=Durango, L=Durango, O=Dingo, OU=Development, CN=Test Intermediate
        Subject Public Key Info:
            Public Key Algorithm: rsaEncryption
                Public-Key: (4096 bit)
                Modulus:
                    00:ca:84:16:33:e7:57:04:cc:45:88:17:be:e9:cb:
                    a0:43:ef:5b:6a:e6:3f:a4:86:b6:f7:3f:2f:b6:03:
                    ec:ae:89:37:93:46:12:bc:21:b5:76:00:57:1a:03:
                    17:d5:31:1b:29:3f:59:00:62:50:d6:8c:a4:cb:21:
                    97:59:7e:77:e3:c2:bb:83:a6:2b:6f:4d:a8:95:28:
                    7d:93:40:4e:91:2d:c2:9c:aa:96:71:1a:89:fd:88:
                    52:93:a0:d7:18:4f:99:cc:e5:48:21:81:19:95:9b:
                    70:30:0e:cd:ca:08:5a:44:06:70:6d:88:b2:8a:de:
                    20:75:e6:5a:cf:24:9e:48:6c:5f:8e:03:bc:ab:d1:
                    b8:6d:62:ec:4a:7d:ee:60:67:ff:27:23:65:48:6e:
                    a2:9e:7a:3d:c8:aa:27:11:d0:f2:92:07:85:25:5f:
                    6c:20:74:d0:74:47:58:85:cf:66:c5:26:d8:cd:8e:
                    9c:74:f8:24:f4:52:86:40:ec:07:ab:a8:d2:90:02:
                    b3:7a:bc:db:93:e1:da:a2:64:aa:6d:f8:fb:3c:c1:
                    31:7d:73:54:dc:56:09:ce:d6:cb:26:63:79:3d:37:
                    05:ae:58:9d:96:fb:2c:a2:df:70:5a:6b:65:d7:02:
                    fa:3e:85:63:1a:e0:ad:bb:2f:f2:5c:e3:7f:c4:cc:
                    a3:cc:8f:b3:e3:c7:8b:11:83:5c:f5:54:50:71:6c:
                    b3:b0:84:cc:18:62:cd:be:77:00:b5:18:b4:cc:d7:
                    9d:bc:4c:56:31:6f:b9:b3:90:f6:94:72:58:a9:b6:
                    d1:95:fb:3a:f5:44:8f:cc:e2:41:2c:4c:59:93:0a:
                    62:3c:3a:30:7d:33:97:84:39:df:30:04:f1:83:1e:
                    89:29:5e:b2:08:11:ac:26:28:78:9f:5f:90:80:80:
                    54:58:e2:9c:91:e8:e0:33:13:0c:c6:4d:46:9b:1d:
                    56:da:47:86:07:2a:b7:92:3e:81:8e:ab:e8:db:af:
                    b6:c0:c0:fe:9c:b7:b6:dc:87:e4:3c:6e:9e:d9:6d:
                    f7:87:18:28:4a:ca:92:62:0e:4e:25:8b:47:94:98:
                    bc:0c:17:5e:2d:c6:b5:0d:95:e4:80:7a:a9:bc:58:
                    28:f9:42:f1:2e:49:05:ca:3a:2e:ea:6e:dd:5c:2a:
                    78:68:fc:af:9b:55:89:a7:a8:4b:6e:d6:b3:83:d2:
                    a9:94:e6:c1:a3:9c:db:1b:92:b0:6c:26:91:7b:2c:
                    32:28:64:a8:e8:60:f6:ff:f5:8c:d1:b6:04:58:ef:
                    19:9e:54:35:40:31:10:fc:ff:8e:ac:3f:41:f8:79:
                    9a:ff:88:39:d5:45:07:d4:a9:33:03:f6:84:67:32:
                    1b:34:a7
                Exponent: 65537 (0x10001)
        X509v3 extensions:
            X509v3 Basic Constraints: 
                CA:TRUE
            X509v3 Subject Key Identifier: 
                72:94:15:74:24:C9:0A:2E:53:BD:47:DC:8C:FF:A4:FC:9E:D1:DC:65
            X509v3 Authority Key Identifier: 
                3A:6A:8A:F0:31:1C:26:75:FC:9A:E3:7E:72:D2:32:A2:BA:7B:5D:C5
    Signature Algorithm: sha256WithRSAEncryption
    Signature Value:
        c6:2b:9d:90:3a:02:69:8b:5a:f0:b9:ca:9f:c4:56:74:c2:c8:
        e5:a7:13:aa:e8:15:b8:86:04:b6:b3:7e:03:b6:bc:88:06:62:
        27:70:13:5a:cd:ff:13:75:c4:f0:9b:20:69:28:b0:ac:03:31:
        99:8f:fe:eb:41:96:75:14:43:16:24:d4:27:72:64:5c:66:37:
        01:e3:09:66:2d:0d:98:fb:20:2e:08:ba:68:e8:45:51:80:bd:
        80:07:73:57:9a:0f:40:f1:ff:de:c0:61:aa:88:3c:7b:1c:bc:
        89:be:40:2c:73:de:69:1c:80:a9:99:5e:53:c6:35:63:a4:cb:
        db:65:ea:a6:5c:5b:ca:62:06:c1:35:f4:1c:c4:54:eb:02:f6:
        40:7a:1a:98:4a:e6:f2:24:72:77:cb:f0:05:14:54:72:ce:10:
        28:a8:47:61:ef:13:d1:ae:0f:87:06:f5:46:b7:a1:47:91:77:
        84:82:16:45:31:84:98:3c:88:8d:9f:3f:a7:e7:cb:61:25:eb:
        91:2c:6b:91:e6:c9:ba:7a:90:eb:7a:92:60:3a:cf:53:9e:87:
        e5:a5:6b:01:5c:56:b4:13:fd:9f:d2:d5:ac:28:89:f3:23:67:
        29:d0:cc:da:b1:fe:41:ea:0f:19:06:49:f9:fc:55:a6:a1:63:
        40:9e:79:0c:f4:af:ba:d8:4a:4f:ef:d5:4a:2e:c1:51:89:2d:
        06:90:67:3b:d9:b5:82:4f:f5:a2:09:61:49:1c:a0:04:93:e1:
        73:8a:71:54:ff:e6:5b:03:02:ed:06:ec:ca:26:29:10:5f:db:
        92:ea:a5:f6:f2:02:46:86:c9:1b:1f:80:ab:0a:55:76:be:01:
        f8:aa:21:ba:86:0b:ec:ed:f6:53:f6:ba:72:ac:41:7a:fe:3d:
        2e:a4:c7:32:70:54:e1:7b:d8:90:e4:81:ec:fc:fe:f2:b5:fd:
        83:68:92:6c:5b:33:ae:2f:e3:db:d7:0e:fa:4e:17:24:12:bf:
        3d:a1:9e:e3:09:11:8f:05:1a:8f:87:fe:4c:d6:45:3c:35:74:
        71:90:bc:c0:5b:bb:7b:7b:2a:23:ae:07:3f:50:ce:64:6d:74:
        36:ec:7d:a4:a5:07:bf:5e:d5:84:6b:63:b0:89:1e:e4:a8:1e:
        8c:42:00:0f:20:8d:1c:52:52:bc:3c:90:c5:ee:36:f8:f1:c8:
        20:f0:ce:50:3d:9f:46:9e:72:fe:1c:54:c7:be:b0:53:51:6d:
        61:dc:13:23:84:f6:1d:f9:15:c6:95:59:1d:90:48:9f:f1:c7:
        2c:c5:07:00:22:1f:99:ae:42:22:13:5b:c2:06:2c:8f:b5:1c:
        17:28:12:b5:f0:4b:74:fd
-----BEGIN CERTIFICATE-----
MIIFpzCCA4+gAwIBAgIBATANBgkqhkiG9w0BAQsFADBpMQswCQYDVQQGEwJNWDEQ
MA4GA1UECAwHRHVyYW5nbzEQMA4GA1UEBwwHRHVyYW5nbzEOMAwGA1UECgwFRGlu
Z28xFDASBgNVBAsMC0RldmVsb3BtZW50MRAwDgYDVQQDDAdUZXN0IENBMB4XDTI1
MTIxNTE0MTgzMloXDTM1MDkxNDE0MTgzMlowczELMAkGA1UEBhMCTVgxEDAOBgNV
BAgMB0R1cmFuZ28xEDAOBgNVBAcMB0R1cmFuZ28xDjAMBgNVBAoMBURpbmdvMRQw
EgYDVQQLDAtEZXZlbG9wbWVudDEaMBgGA1UEAwwRVGVzdCBJbnRlcm1lZGlhdGUw
ggIiMA0GCSqGSIb3DQEBAQUAA4ICDwAwggIKAoICAQDKhBYz51cEzEWIF77py6BD
71tq5j+khrb3Py+2A+yuiTeTRhK8IbV2AFcaAxfVMRspP1kAYlDWjKTLIZdZfnfj
wruDpitvTaiVKH2TQE6RLcKcqpZxGon9iFKToNcYT5nM5UghgRmVm3AwDs3KCFpE
BnBtiLKK3iB15lrPJJ5IbF+OA7yr0bhtYuxKfe5gZ/8nI2VIbqKeej3IqicR0PKS
B4UlX2wgdNB0R1iFz2bFJtjNjpx0+CT0UoZA7AerqNKQArN6vNuT4dqiZKpt+Ps8
wTF9c1TcVgnO1ssmY3k9NwWuWJ2W+yyi33Baa2XXAvo+hWMa4K27L/Jc43/EzKPM
j7Pjx4sRg1z1VFBxbLOwhMwYYs2+dwC1GLTM1528TFYxb7mzkPaUclipttGV+zr1
RI/M4kEsTFmTCmI8OjB9M5eEOd8wBPGDHokpXrIIEawmKHifX5CAgFRY4pyR6OAz
EwzGTUabHVbaR4YHKreSPoGOq+jbr7bAwP6ct7bch+Q8bp7ZbfeHGChKypJiDk4l
i0eUmLwMF14txrUNleSAeqm8WCj5QvEuSQXKOi7qbt1cKnho/K+bVYmnqEtu1rOD
0qmU5sGjnNsbkrBsJpF7LDIoZKjoYPb/9YzRtgRY7xmeVDVAMRD8/46sP0H4eZr/
iDnVRQfUqTMD9oRnMhs0pwIDAQABo1AwTjAMBgNVHRMEBTADAQH/MB0GA1UdDgQW
BBRylBV0JMkKLlO9R9yM/6T8ntHcZTAfBgNVHSMEGDAWgBQ6aorwMRwmdfya435y
0jKiuntdxTANBgkqhkiG9w0BAQsFAAOCAgEAxiudkDoCaYta8LnKn8RWdMLI5acT
qugVuIYEtrN+A7a8iAZiJ3ATWs3/E3XE8JsgaSiwrAMxmY/+60GWdRRDFiTUJ3Jk
XGY3AeMJZi0NmPsgLgi6aOhFUYC9gAdzV5oPQPH/3sBhqog8exy8ib5ALHPeaRyA
qZleU8Y1Y6TL22XqplxbymIGwTX0HMRU6wL2QHoamErm8iRyd8vwBRRUcs4QKKhH
Ye8T0a4Phwb1RrehR5F3hIIWRTGEmDyIjZ8/p+fLYSXrkSxrkebJunqQ63qSYDrP
U56H5aVrAVxWtBP9n9LVrCiJ8yNnKdDM2rH+QeoPGQZJ+fxVpqFjQJ55DPSvuthK
T+/VSi7BUYktBpBnO9m1gk/1oglhSRygBJPhc4pxVP/mWwMC7QbsyiYpEF/bkuql
9vICRobJGx+AqwpVdr4B+KohuoYL7O32U/a6cqxBev49LqTHMnBU4XvYkOSB7Pz+
8rX9g2iSbFszri/j29cO+k4XJBK/PaGe4wkRjwUaj4f+TNZFPDV0cZC8wFu7e3sq
I64HP1DOZG10Nux9pKUHv17VhGtjsIke5KgejEIADyCNHFJSvDyQxe42+PHIIPDO
UD2fRp5y/hxUx76wU1FtYdwTI4T2HfkVxpVZHZBIn/HHLMUHACIfma5CIhNbwgYs
j7UcFygStfBLdP0=
-----END CERTIFICATE-----
