Certificate:
    Data:
        Version: 3 (0x2)
        Serial Number: 2 (0x2)
        Signature Algorithm: sha256WithRSAEncryption
        Issuer: C=MX, ST=Durango, L=Durango, O=Dingo, OU=Development, CN=Test Intermediate
        Validity
            Not Before: Dec 15 14:18:32 2025 GMT
            Not After : Sep 14 14:18:32 2035 GMT
        Subject: C=MX, ST=Durango, L=Durango, O=Dingo, OU=Development, CN=Test Server
        Subject Public Key Info:
            Public Key Algorithm: rsaEncryption
                Public-Key: (4096 bit)
                Modulus:
                    00:e7:4c:82:ee:b9:06:2b:f0:18:d6:ad:84:0d:0b:
                    1d:59:f6:32:c0:07:23:98:3d:cb:e3:c5:83:ee:ad:
                    37:7b:dc:76:16:cb:f0:8d:f6:f2:c0:6e:54:2f:a6:
                    2a:30:80:65:e8:97:35:37:ad:80:b6:7b:d6:7c:40:
                    39:35:71:8b:4a:b6:03:c6:02:bb:72:b1:f5:0e:b9:
                    16:8d:5a:43:5a:ec:7b:f5:03:5b:6b:53:74:62:a6:
                    e6:63:5e:25:01:fd:2d:2c:87:8c:e2:de:de:48:a0:
                    75:fe:b3:65:61:4c:12:30:88:ac:53:0c:15:93:22:
                    f8:ba:a0:03:c0:31:af:67:b6:98:8e:08:c7:68:ca:
                    1f:da:f1:2c:ad:e4:d8:d9:a2:1d:b7:75:ba:b2:35:
                    e3:5b:3f:da:c1:eb:da:50:53:25:22:99:af:0a:68:
                    6d:31:ff:fb:43:6e:8f:93:1b:c4:90:e8:94:bf:8b:
                    78:b0:db:03:71:cb:e4:61:0f:1d:a0:f1:d7:c3:d7:
                    19:f0:59:86:2c:99:65:6d:6e:e3:74:f4:10:0a:b5:
                    ca:3f:d1:5a:b4:78:8f:6c:a0:24:87:de:e8:83:d6:
                    f3:e2:12:9f:27:1b:e9:33:f4:a1:a2:40:e0:2a:ce:
                    d1:0e:3a:58:2d:36:82:97:1d:c7:b2:0e:d5:9d:c9:
                    8e:57:84:15:f9:a8:41:07:04:52:76:5c:79:98:47:
                    28:8e:cf:20:c5:57:bd:60:5a:ca:b2:d9:97:7c:67:
                    43:f8:43:17:14:d2:8b:8c:f9:8b:8a:e8:c4:f7:9f:
                    df:bd:77:63:7d:1c:6c:d1:58:43:a5:87:74:12:f6:
                    c1:f1:26:8d:56:fa:a4:b6:74:3d:6b:84:ff:95:67:
                    17:c4:01:de:71:2a:cf:af:35:0c:3b:63:1b:25:c8:
                    1f:ad:8e:d9:6e:a5:f2:ac:2f:81:6e:9b:14:27:e8:
                    5e:24:69:75:1a:0c:1b:ed:b9:2b:46:b2:66:87:41:
                    ea:08:12:d8:aa:78:6a:35:b6:3d:6c:a0:27:6d:57:
                    2d:d7:06:02:a0:bf:79:a5:14:b0:d3:2b:6d:86:de:
                    09:93:27:53:16:e0:14:97:38:20:95:42:b3:00:c1:
                    ad:5b:3a:d1:56:6d:4c:6a:ba:fb:be:81:f0:64:cd:
                    35:0c:a8:b7:5a:f4:18:d5:44:74:65:46:87:34:9a:
                    e6:e6:75:0f:ee:82:54:7d:aa:f8:54:5e:70:04:4c:
                    8f:18:c3:d7:b3:5c:57:17:8b:dd:84:47:d7:e7:5a:
                    8b:29:af:d9:11:15:1d:b3:87:35:fe:ac:ca:b3:be:
                    3a:83:d3:32:ed:3a:ef:17:34:57:ce:3b:43:91:09:
                    e9:50:d9
                Exponent: 65537 (0x10001)
        X509v3 extensions:
            X509v3 Subject Key Identifier: 
                F0:C4:1C:60:A0:47:98:80:02:E7:AD:BA:47:DB:BA:74:43:88:58:EB
            X509v3 Authority Key Identifier: 
                72:94:15:74:24:C9:0A:2E:53:BD:47:DC:8C:FF:A4:FC:9E:D1:DC:65
    Signature Algorithm: sha256WithRSAEncryption
    Signature Value:
        ae:28:55:68:41:14:4d:fd:eb:8d:9d:fd:c9:26:65:c9:3e:7e:
        62:0d:54:9c:0d:b2:ea:33:27:36:23:55:90:34:8e:35:1b:d4:
        d1:2a:d8:5e:85:e1:3b:f2:cd:7f:5f:f9:b8:bb:b3:fe:2f:7e:
        fb:ac:8a:eb:28:8a:a1:97:99:97:b3:78:89:51:d9:73:55:2d:
        d4:55:e1:d5:91:4f:4c:e3:d5:71:1f:a6:4c:c4:3e:11:8c:3f:
        c3:b1:80:de:e5:6f:9a:b3:6b:ee:4a:46:fa:81:50:7c:80:ab:
        3b:ad:63:86:f1:ac:a3:d5:75:f2:f3:09:01:48:0c:34:34:1c:
        23:1a:0a:5c:59:24:c3:e6:eb:11:72:a4:9d:92:25:45:db:18:
        1c:99:76:3a:1e:68:6f:5d:e2:ce:59:45:ce:84:25:97:03:f5:
        9c:03:18:51:8f:bb:12:4b:b2:fd:26:b7:88:0b:0e:e7:c0:fc:
        fb:73:75:77:c8:28:aa:ba:30:6d:a2:93:bd:aa:08:53:02:a7:
        1e:3e:45:44:37:d5:41:26:1d:09:64:83:f1:53:5b:29:28:42:
        4b:b9:28:3e:65:69:c7:fc:99:55:8c:01:13:15:96:4f:04:0c:
        4b:de:e1:e1:d3:93:aa:20:e6:89:52:9c:62:90:66:ce:fe:9d:
        e7:98:f0:06:f0:03:79:42:02:86:db:22:b9:6f:92:38:59:9d:
        8b:35:52:dd:5c:b9:89:58:b7:1a:52:1c:bd:48:7c:17:aa:b9:
        16:08:fc:66:28:9d:e9:f3:10:16:77:5d:c4:9d:77:e9:d6:57:
        4b:d3:15:3c:ec:c6:1a:96:43:88:3f:a8:38:44:80:5c:01:bb:
        70:e1:c1:a3:85:83:cc:d8:a8:da:17:20:f3:ae:5a:2b:b0:fa:
        4c:fc:76:ee:32:71:88:16:8c:ec:d6:98:c5:36:8e:ad:d2:30:
        66:96:43:44:4b:a8:16:8f:6a:6b:8e:78:34:6b:9c:62:00:f6:
        b5:e2:bf:e1:31:85:67:7f:03:43:ef:2b:74:d1:3d:d7:ec:cc:
        12:a0:82:83:ba:f2:40:de:5a:23:87:3b:ae:8a:a5:da:5d:51:
        4a:fa:01:67:ce:78:96:4e:2f:5e:0e:37:d4:a0:59:73:79:64:
        09:45:e0:7a:5d:45:50:9c:5e:9d:e7:32:32:3f:cd:50:75:41:
        34:f1:1f:2f:59:5d:30:f9:c9:94:b5:ae:f4:5b:d1:03:ca:37:
        a0:63:3f:ec:e1:70:58:20:7a:d6:a8:50:d2:b0:40:5e:f6:cc:
        15:53:ec:54:b7:95:38:3e:fd:3c:cc:c7:72:d6:38:b2:4a:ce:
        6a:25:05:57:ca:71:99:2d
-----BEGIN CERTIFICATE-----
MIIFnTCCA4WgAwIBAgIBAjANBgkqhkiG9w0BAQsFADBzMQswCQYDVQQGEwJNWDEQ
MA4GA1UECAwHRHVyYW5nbzEQMA4GA1UEBwwHRHVyYW5nbzEOMAwGA1UECgwFRGlu
Z28xFDASBgNVBAsMC0RldmVsb3BtZW50MRowGAYDVQQDDBFUZXN0IEludGVybWVk
aWF0ZTAeFw0yNTEyMTUxNDE4MzJaFw0zNTA5MTQxNDE4MzJaMG0xCzAJBgNVBAYT
Ak1YMRAwDgYDVQQIDAdEdXJhbmdvMRAwDgYDVQQHDAdEdXJhbmdvMQ4wDAYDVQQK
DAVEaW5nbzEUMBIGA1UECwwLRGV2ZWxvcG1lbnQxFDASBgNVBAMMC1Rlc3QgU2Vy
dmVyMIICIjANBgkqhkiG9w0BAQEFAAOCAg8AMIICCgKCAgEA50yC7rkGK/AY1q2E
DQsdWfYywAcjmD3L48WD7q03e9x2FsvwjfbywG5UL6YqMIBl6Jc1N62AtnvWfEA5
NXGLSrYDxgK7crH1DrkWjVpDWux79QNba1N0YqbmY14lAf0tLIeM4t7eSKB1/rNl
YUwSMIisUwwVkyL4uqADwDGvZ7aYjgjHaMof2vEsreTY2aIdt3W6sjXjWz/aweva
UFMlIpmvCmhtMf/7Q26PkxvEkOiUv4t4sNsDccvkYQ8doPHXw9cZ8FmGLJllbW7j
dPQQCrXKP9FatHiPbKAkh97og9bz4hKfJxvpM/ShokDgKs7RDjpYLTaClx3Hsg7V
ncmOV4QV+ahBBwRSdlx5mEcojs8gxVe9YFrKstmXfGdD+EMXFNKLjPmLiujE95/f
vXdjfRxs0VhDpYd0EvbB8SaNVvqktnQ9a4T/lWcXxAHecSrPrzUMO2MbJcgfrY7Z
bqXyrC+BbpsUJ+heJGl1Ggwb7bkrRrJmh0HqCBLYqnhqNbY9bKAnbVct1wYCoL95
pRSw0yttht4JkydTFuAUlzgglUKzAMGtWzrRVm1Marr7voHwZM01DKi3WvQY1UR0
ZUaHNJrm5nUP7oJUfar4VF5wBEyPGMPXs1xXF4vdhEfX51qLKa/ZERUds4c1/qzK
s746g9My7TrvFzRXzjtDkQnpUNkCAwEAAaNCMEAwHQYDVR0OBBYEFPDEHGCgR5iA
AuetukfbunRDiFjrMB8GA1UdIwQYMBaAFHKUFXQkyQouU71H3Iz/pPye0dxlMA0G
CSqGSIb3DQEBCwUAA4ICAQCuKFVoQRRN/euNnf3JJmXJPn5iDVScDbLqMyc2I1WQ
NI41G9TRKtheheE78s1/X/m4u7P+L377rIrrKIqhl5mXs3iJUdlzVS3UVeHVkU9M
49VxH6ZMxD4RjD/DsYDe5W+as2vuSkb6gVB8gKs7rWOG8ayj1XXy8wkBSAw0NBwj
GgpcWSTD5usRcqSdkiVF2xgcmXY6HmhvXeLOWUXOhCWXA/WcAxhRj7sSS7L9JreI
Cw7nwPz7c3V3yCiqujBtopO9qghTAqcePkVEN9VBJh0JZIPxU1spKEJLuSg+ZWnH
/JlVjAETFZZPBAxL3uHh05OqIOaJUpxikGbO/p3nmPAG8AN5QgKG2yK5b5I4WZ2L
NVLdXLmJWLcaUhy9SHwXqrkWCPxmKJ3p8xAWd13EnXfp1ldL0xU87MYalkOIP6g4
RIBcAbtw4cGjhYPM2KjaFyDzrlorsPpM/HbuMnGIFozs1pjFNo6t0jBmlkNES6gW
j2prjng0a5xiAPa14r/hMYVnfwND7yt00T3X7MwSoIKDuvJA3lojhzuuiqXaXVFK
+gFnzniWTi9eDjfUoFlzeWQJReB6XUVQnF6d5zIyP81QdUE08R8vWV0w+cmUta70
W9EDyjegYz/s4XBYIHrWqFDSsEBe9swVU+xUt5U4Pv08zMdy1jiySs5qJQVXynGZ
LQ==
-----END CERTIFICATE-----
