Certificate:
    Data:
        Version: 3 (0x2)
        Serial Number: 2 (0x2)
        Signature Algorithm: sha256WithRSAEncryption
        Issuer: C=MX, ST=Durango, L=Durango, O=Dingo, OU=Development, CN=Test Intermediate
        Validity
            Not Before: Dec  4 03:46:04 2025 GMT
            Not After : Sep  3 03:46:04 2035 GMT
        Subject: C=MX, ST=Durango, L=Durango, O=Dingo, OU=Development, CN=Test Server
        Subject Public Key Info:
            Public Key Algorithm: rsaEncryption
                Public-Key: (4096 bit)
                Modulus:
                    00:98:f5:79:29:5e:ca:1d:38:37:ec:4a:da:c0:ed:
                    4f:bc:72:e4:e4:7f:1e:6b:eb:7c:18:16:d5:19:64:
                    42:89:a6:d5:e1:11:dd:e3:2f:f5:1d:ca:6a:01:3a:
                    a1:78:f2:43:d7:7b:5e:2e:7d:77:7e:d2:02:cf:70:
                    1f:88:f4:db:0e:8c:09:c6:61:e9:c8:b9:36:03:45:
                    c8:31:77:6c:45:fa:5a:d6:4c:b1:88:e5:e0:40:e5:
                    9f:ff:77:74:ba:94:80:ba:77:78:78:39:90:3c:a5:
                    30:41:65:35:07:4c:21:3c:04:77:a3:fe:1c:8c:6c:
                    34:20:d4:84:7b:98:ed:ab:e7:33:0d:09:8f:68:28:
                    34:79:5d:da:ed:ac:e1:00:a6:95:29:49:87:10:62:
                    8b:1f:17:e5:5f:9f:ad:0b:64:8f:96:28:a8:4e:44:
                    53:8c:86:3c:be:3d:31:66:a5:f1:ef:e3:04:e9:91:
                    44:e9:20:5a:51:88:4f:1b:25:af:a4:2d:31:d1:ab:
                    8d:b5:53:2c:a4:62:2c:d7:c2:82:a3:25:9c:9b:90:
                    d9:a5:be:a0:db:26:ac:00:df:46:ab:35:3e:ad:d6:
                    3f:dd:6c:7d:48:9e:85:ee:8e:3f:3f:c4:d1:29:fa:
                    a2:f4:b5:31:26:27:5f:ad:de:ad:92:b6:59:23:77:
                    53:0c:39:8f:01:f0:82:fe:25:30:e9:1d:e5:b1:8f:
                    0c:27:f1:ec:4c:f9:f0:98:af:81:01:1e:f8:69:7e:
                    03:bb:d3:e7:25:e0:05:45:e9:a2:3d:c3:e0:73:52:
                    f4:fa:a3:c9:ae:ab:69:cd:76:c2:2f:81:aa:14:ec:
                    17:12:af:87:7f:50:04:a8:19:61:fe:f9:27:02:6c:
                    34:e6:d9:2c:9a:eb:4c:06:6c:7c:47:6c:eb:f1:57:
                    25:a3:f6:c5:f0:21:15:a1:2c:e5:9f:be:d9:6b:5a:
                    08:e7:4a:08:8b:cd:96:47:ea:b2:b9:f7:83:16:fc:
                    5f:9d:13:45:dc:3c:ea:f6:e4:fd:dd:76:9f:cf:14:
                    61:98:72:18:b2:d8:cc:4f:b4:3d:a7:86:33:ee:00:
                    86:d2:3a:7c:0d:22:68:5b:24:ac:cd:87:8b:1e:77:
                    e7:da:c0:2a:8a:09:47:38:9b:90:6a:b0:25:36:30:
                    02:da:40:b9:53:dc:62:c9:c4:c2:85:70:f6:40:86:
                    43:25:19:fa:7b:a0:4e:27:30:4e:24:24:af:c7:dd:
                    9d:5e:4d:ba:40:5b:82:49:d5:d2:a9:68:a8:9b:88:
                    6b:98:6f:e7:95:9a:f8:55:d7:88:5b:69:eb:52:cc:
                    43:34:f5:47:2b:67:01:2a:32:43:d1:14:bd:e9:87:
                    2c:c7:af
                Exponent: 65537 (0x10001)
        X509v3 extensions:
            X509v3 Subject Key Identifier: 
                F3:E0:12:E9:6E:1B:0B:7F:63:EF:05:AD:94:21:7A:5A:96:E7:1A:A6
            X509v3 Authority Key Identifier: 
                90:36:F6:F9:7B:E1:4F:9F:F4:17:5F:4A:87:5B:5B:36:C5:2B:46:6F
    Signature Algorithm: sha256WithRSAEncryption
    Signature Value:
        c1:51:0e:89:c2:fe:93:02:2c:17:c2:f1:ca:33:05:29:3a:af:
        97:76:73:94:26:5f:49:b5:b6:04:3c:a8:30:90:dc:c2:8f:27:
        69:a4:b6:f9:c6:b2:4a:5b:be:27:a9:fb:f6:d8:c3:86:6a:2f:
        b2:3e:9c:97:66:ee:96:9a:58:22:5c:22:db:e8:5e:6d:08:67:
        01:00:49:27:6a:80:93:41:bc:04:b0:c8:00:fb:4c:fa:2a:29:
        b4:e7:bb:86:1e:a9:4e:6b:05:65:23:0e:68:75:f2:14:4c:49:
        42:26:19:32:bb:94:2d:32:b9:c4:1c:89:55:8e:05:f2:be:b9:
        b1:b7:39:07:0d:90:92:6f:b4:4b:14:4f:6a:34:c7:a4:03:60:
        a3:9e:3d:9f:5f:c3:95:0b:c6:5f:0b:cb:b7:c4:6d:94:a4:28:
        4e:33:54:1b:49:a0:52:2d:b4:be:04:4d:06:b9:da:29:74:6e:
        ab:ca:35:a1:eb:8a:9f:e7:69:7a:e4:75:d1:f9:34:97:fc:2a:
        70:7b:75:32:37:f2:96:5a:0c:8a:db:f8:25:a0:95:58:ee:6e:
        39:9e:a3:ac:dc:b9:73:38:27:2b:f7:46:20:4f:1a:27:60:2d:
        4f:54:6f:0e:5f:ae:fc:51:d4:5c:93:e1:06:ba:59:d4:1b:fe:
        a4:20:67:ac:14:d8:6e:ab:5e:b2:5f:35:94:f4:c4:9c:47:52:
        20:48:af:54:72:e2:1e:cb:17:30:db:02:2c:8b:3e:4d:52:cd:
        11:99:59:e7:61:19:0d:5e:72:21:87:c4:e6:69:3c:00:c4:48:
        18:f4:2c:ba:5b:0c:e0:a2:dc:fa:24:1f:81:1e:4f:e2:5d:c2:
        c2:6c:24:17:47:38:f6:73:7b:30:08:80:8e:80:b7:c8:b2:ad:
        45:64:c7:7b:c3:54:89:64:72:fa:9f:07:80:e7:a8:af:d3:1e:
        41:6a:5d:e8:c8:c2:e2:94:08:20:a7:c5:b1:81:ba:79:d4:ea:
        9e:02:42:6c:94:c2:55:31:d8:fa:2a:44:54:5f:1b:ad:27:2c:
        ea:5e:b7:ce:a1:6e:20:e6:98:62:d9:23:0d:5a:b9:a1:8b:77:
        68:8a:2d:7f:b8:05:ef:ba:d0:90:25:8d:36:06:20:10:79:4d:
        97:5b:35:ce:1e:ac:18:66:88:8f:df:ce:36:cd:37:89:4e:20:
        77:f3:a8:a8:e1:bc:75:bc:c9:8c:e7:79:2f:44:0d:fb:82:25:
        ff:27:aa:3a:de:d8:f4:77:66:44:bf:ff:01:d7:5c:85:c2:53:
        07:55:26:70:01:ec:a3:f8:07:59:b8:dc:5f:20:22:89:98:69:
        b7:5a:f7:86:28:78:17:47
-----BEGIN CERTIFICATE-----
MIIFnTCCA4WgAwIBAgIBAjANBgkqhkiG9w0BAQsFADBzMQswCQYDVQQGEwJNWDEQ
MA4GA1UECAwHRHVyYW5nbzEQMA4GA1UEBwwHRHVyYW5nbzEOMAwGA1UECgwFRGlu
Z28xFDASBgNVBAsMC0RldmVsb3BtZW50MRowGAYDVQQDDBFUZXN0IEludGVybWVk
aWF0ZTAeFw0yNTEyMDQwMzQ2MDRaFw0zNTA5MDMwMzQ2MDRaMG0xCzAJBgNVBAYT
Ak1YMRAwDgYDVQQIDAdEdXJhbmdvMRAwDgYDVQQHDAdEdXJhbmdvMQ4wDAYDVQQK
DAVEaW5nbzEUMBIGA1UECwwLRGV2ZWxvcG1lbnQxFDASBgNVBAMMC1Rlc3QgU2Vy
dmVyMIICIjANBgkqhkiG9w0BAQEFAAOCAg8AMIICCgKCAgEAmPV5KV7KHTg37Era
wO1PvHLk5H8ea+t8GBbVGWRCiabV4RHd4y/1HcpqATqhePJD13teLn13ftICz3Af
iPTbDowJxmHpyLk2A0XIMXdsRfpa1kyxiOXgQOWf/3d0upSAund4eDmQPKUwQWU1
B0whPAR3o/4cjGw0INSEe5jtq+czDQmPaCg0eV3a7azhAKaVKUmHEGKLHxflX5+t
C2SPliioTkRTjIY8vj0xZqXx7+ME6ZFE6SBaUYhPGyWvpC0x0auNtVMspGIs18KC
oyWcm5DZpb6g2yasAN9GqzU+rdY/3Wx9SJ6F7o4/P8TRKfqi9LUxJidfrd6tkrZZ
I3dTDDmPAfCC/iUw6R3lsY8MJ/HsTPnwmK+BAR74aX4Du9PnJeAFRemiPcPgc1L0
+qPJrqtpzXbCL4GqFOwXEq+Hf1AEqBlh/vknAmw05tksmutMBmx8R2zr8Vclo/bF
8CEVoSzln77Za1oI50oIi82WR+qyufeDFvxfnRNF3Dzq9uT93XafzxRhmHIYstjM
T7Q9p4Yz7gCG0jp8DSJoWySszYeLHnfn2sAqiglHOJuQarAlNjAC2kC5U9xiycTC
hXD2QIZDJRn6e6BOJzBOJCSvx92dXk26QFuCSdXSqWiom4hrmG/nlZr4VdeIW2nr
UsxDNPVHK2cBKjJD0RS96Ycsx68CAwEAAaNCMEAwHQYDVR0OBBYEFPPgEuluGwt/
Y+8FrZQhelqW5xqmMB8GA1UdIwQYMBaAFJA29vl74U+f9BdfSodbWzbFK0ZvMA0G
CSqGSIb3DQEBCwUAA4ICAQDBUQ6Jwv6TAiwXwvHKMwUpOq+XdnOUJl9JtbYEPKgw
kNzCjydppLb5xrJKW74nqfv22MOGai+yPpyXZu6WmlgiXCLb6F5tCGcBAEknaoCT
QbwEsMgA+0z6Kim057uGHqlOawVlIw5odfIUTElCJhkyu5QtMrnEHIlVjgXyvrmx
tzkHDZCSb7RLFE9qNMekA2Cjnj2fX8OVC8ZfC8u3xG2UpChOM1QbSaBSLbS+BE0G
udopdG6ryjWh64qf52l65HXR+TSX/Cpwe3UyN/KWWgyK2/gloJVY7m45nqOs3Llz
OCcr90YgTxonYC1PVG8OX678UdRck+EGulnUG/6kIGesFNhuq16yXzWU9MScR1Ig
SK9UcuIeyxcw2wIsiz5NUs0RmVnnYRkNXnIhh8TmaTwAxEgY9Cy6Wwzgotz6JB+B
Hk/iXcLCbCQXRzj2c3swCICOgLfIsq1FZMd7w1SJZHL6nweA56iv0x5Bal3oyMLi
lAggp8Wxgbp51OqeAkJslMJVMdj6KkRUXxutJyzqXrfOoW4g5phi2SMNWrmhi3do
ii1/uAXvutCQJY02BiAQeU2XWzXOHqwYZoiP3842zTeJTiB386io4bx1vMmM53kv
RA37giX/J6o63tj0d2ZEv/8B11yFwlMHVSZwAeyj+AdZuNxfICKJmGm3WveGKHgX
Rw==
-----END CERTIFICATE-----
Certificate:
    Data:
        Version: 3 (0x2)
        Serial Number: 1 (0x1)
        Signature Algorithm: sha256WithRSAEncryption
        Issuer: C=MX, ST=Durango, L=Durango, O=Dingo, OU=Development, CN=Test CA
        Validity
            Not Before: Dec  4 03:46:04 2025 GMT
            Not After : Sep  3 03:46:04 2035 GMT
        Subject: C=MX, ST=Durango, L=Durango, O=Dingo, OU=Development, CN=Test Intermediate
        Subject Public Key Info:
            Public Key Algorithm: rsaEncryption
                Public-Key: (4096 bit)
                Modulus:
                    00:d4:28:6a:69:70:b7:5e:d7:9e:c2:0c:dd:17:2b:
                    bf:39:f3:12:38:b4:be:f3:7b:8f:58:a3:f5:0a:19:
                    6b:24:1c:f3:6e:74:26:ad:c7:92:1a:88:03:19:b7:
                    ae:18:0c:1b:fe:0a:77:60:42:ca:06:47:26:ad:56:
                    e9:7f:fc:e4:74:6e:49:2b:23:a4:50:d3:3c:d9:be:
                    2b:2a:00:f6:ef:6f:8a:d2:25:50:6d:5b:ad:2f:68:
                    7b:1f:73:77:81:20:73:4f:26:95:bc:6e:a3:2c:24:
                    b2:3f:c2:70:06:02:4d:c9:f7:c9:64:68:71:36:54:
                    d9:d5:c1:97:42:44:66:c9:db:e8:93:34:9d:66:9c:
                    3a:90:04:a8:8c:7e:4e:65:e7:24:56:65:0c:15:bf:
                    ef:c0:3c:3d:04:73:90:ff:7a:e2:ae:7c:7b:cf:f6:
                    2d:36:8a:7f:c0:02:84:60:ef:54:f9:70:e4:cd:06:
                    75:42:ee:13:67:e6:d2:8a:59:ab:1f:7f:b0:80:bf:
                    f4:3f:0c:c2:86:00:9a:c2:74:01:54:10:74:30:0d:
                    81:b1:d7:49:d6:a4:0c:75:af:50:e6:2f:2f:79:75:
                    e5:b2:37:08:b6:30:01:ab:b0:73:bb:4c:67:e5:93:
                    8e:94:2b:8d:c5:f4:5c:aa:89:9a:b2:27:52:4b:b2:
                    19:27:a0:ec:86:56:2f:4c:b5:e4:32:5a:9d:1b:98:
                    91:ca:92:67:c4:8e:1a:ba:9f:5f:92:13:b6:ea:c4:
                    86:22:1c:47:9e:33:c2:52:33:3c:1d:f0:9b:45:93:
                    b5:45:48:0b:b5:83:ed:95:55:f8:0e:b3:ec:0a:fc:
                    ea:6e:33:e1:22:b6:39:8c:2f:df:4d:af:96:5f:3f:
                    9e:64:76:57:3e:36:e5:e4:de:44:fa:ff:17:b0:9e:
                    d6:f5:e8:4f:a1:5d:07:ff:a4:d5:0c:fd:7b:13:f1:
                    3a:6d:28:df:ae:a8:a5:53:c1:1c:2d:0e:fa:d1:1d:
                    9f:d9:a1:79:21:d7:23:9d:66:8c:10:11:78:a8:0c:
                    9a:5a:f4:ea:f1:ac:07:5e:cc:22:fa:36:1a:15:6e:
                    f7:7b:4c:44:fc:c4:ae:45:07:4a:09:0c:a0:8f:9a:
                    70:78:ac:3b:5c:1b:5f:53:38:1a:a4:e3:40:63:f4:
                    50:de:6d:d9:1d:6a:57:53:65:aa:ea:ac:f8:6f:ec:
                    82:f2:de:9a:81:6c:02:6d:fb:03:b9:c1:52:65:f6:
                    e7:2e:16:b5:0c:c6:df:db:81:32:13:73:bb:11:46:
                    f4:91:4d:60:7f:62:22:e2:c7:9f:80:7e:3d:43:5a:
                    b9:08:e5:7b:a4:88:43:e9:20:c7:21:a2:82:3d:b3:
                    05:2d:89
                Exponent: 65537 (0x10001)
        X509v3 extensions:
            X509v3 Basic Constraints: 
                CA:TRUE
            X509v3 Subject Key Identifier: 
                90:36:F6:F9:7B:E1:4F:9F:F4:17:5F:4A:87:5B:5B:36:C5:2B:46:6F
            X509v3 Authority Key Identifier: 
                41:69:A2:FE:8A:F9:C5:12:47:F0:07:8E:00:E6:3E:ED:E6:3C:56:4B
    Signature Algorithm: sha256WithRSAEncryption
    Signature Value:
        c7:05:f3:7e:d8:d2:06:17:99:80:0b:f6:a7:6c:a2:35:ac:05:
        39:cc:68:12:a9:d2:02:15:5a:d3:b3:98:98:34:1d:3b:a8:35:
        bd:1b:9c:ac:dd:70:2a:1a:0c:51:ce:98:fa:34:e3:b9:ea:18:
        40:8a:aa:09:90:d8:b7:b4:c8:49:a7:da:68:31:b3:b6:aa:b2:
        e9:82:ab:5f:88:b5:d0:c9:de:f7:c1:fd:b1:f5:f1:ae:87:8d:
        d8:4c:70:e5:03:1b:5a:6f:b7:dc:6f:d6:de:20:33:5a:20:9c:
        25:84:6e:41:b6:b3:5c:59:bf:aa:f7:2e:81:58:09:b0:71:f6:
        b5:45:95:0d:2e:96:96:51:0c:c9:07:30:63:54:e9:19:04:1f:
        8c:d9:f6:df:d2:41:88:ac:01:3b:14:12:6a:e8:68:cf:11:7f:
        74:9a:5b:2d:c7:aa:2d:1f:7f:cc:e6:39:b6:9f:cb:97:fc:03:
        ef:ec:12:b5:3d:ad:2f:7e:94:e4:c2:07:a4:09:5e:d5:a7:cb:
        e6:e3:21:c7:02:02:37:4c:a4:e9:32:08:a5:b3:f8:5f:ac:64:
        06:7a:e3:75:89:61:75:3c:09:12:6b:0e:73:53:72:d4:c2:0a:
        6c:09:6c:5e:c4:a9:bc:3e:02:f0:e5:7e:95:e1:ac:0f:22:b2:
        c6:58:4a:bf:3d:0f:ec:7b:23:fa:88:a3:18:68:97:16:dc:fd:
        43:cc:20:c8:25:c2:5f:1f:06:42:29:4f:54:74:42:cf:c7:ba:
        72:16:95:0e:b8:8c:b1:35:26:d2:11:63:98:22:35:9d:c2:60:
        7f:b3:dc:c7:07:55:6a:d0:a9:74:33:5b:94:c1:47:6c:52:15:
        21:76:59:b3:14:58:3a:51:d2:55:5d:15:45:f3:0a:98:69:fd:
        cd:49:84:6b:9b:d6:d4:15:60:f4:09:26:b4:68:89:77:38:5e:
        be:f4:6b:9b:04:0f:18:31:bb:1d:43:02:a1:89:b0:0f:5f:3f:
        26:9f:4d:f7:11:77:1b:80:0c:b7:78:a1:72:a4:83:66:01:a5:
        78:a3:ee:39:1c:70:b6:e8:0c:b5:30:52:ff:8e:a7:06:eb:ef:
        82:c5:1b:6b:60:12:3a:7b:33:13:0e:81:69:34:c1:13:bc:8a:
        0d:73:07:4a:ba:2f:aa:74:ff:39:b3:e1:6b:94:8d:70:20:bd:
        da:fd:b3:b8:b1:f2:53:b2:73:cc:bc:b3:86:0a:aa:8b:f6:50:
        f4:dc:32:d8:3c:8a:d6:e4:d3:7e:bd:c1:8a:4d:24:78:3f:24:
        c3:da:8a:79:e4:44:61:37:30:00:64:b1:2c:1c:9a:0c:9a:12:
        5f:e7:ae:d4:c2:99:6c:f3
-----BEGIN CERTIFICATE-----
MIIFpzCCA4+gAwIBAgIBATANBgkqhkiG9w0BAQsFADBpMQswCQYDVQQGEwJNWDEQ
MA4GA1UECAwHRHVyYW5nbzEQMA4GA1UEBwwHRHVyYW5nbzEOMAwGA1UECgwFRGlu
Z28xFDASBgNVBAsMC0RldmVsb3BtZW50MRAwDgYDVQQDDAdUZXN0IENBMB4XDTI1
MTIwNDAzNDYwNFoXDTM1MDkwMzAzNDYwNFowczELMAkGA1UEBhMCTVgxEDAOBgNV
BAgMB0R1cmFuZ28xEDAOBgNVBAcMB0R1cmFuZ28xDjAMBgNVBAoMBURpbmdvMRQw
EgYDVQQLDAtEZXZlbG9wbWVudDEaMBgGA1UEAwwRVGVzdCBJbnRlcm1lZGlhdGUw
ggIiMA0GCSqGSIb3DQEBAQUAA4ICDwAwggIKAoICAQDUKGppcLde157CDN0XK785
8xI4tL7ze49Yo/UKGWskHPNudCatx5IaiAMZt64YDBv+CndgQsoGRyatVul//OR0
bkkrI6RQ0zzZvisqAPbvb4rSJVBtW60vaHsfc3eBIHNPJpW8bqMsJLI/wnAGAk3J
98lkaHE2VNnVwZdCRGbJ2+iTNJ1mnDqQBKiMfk5l5yRWZQwVv+/APD0Ec5D/euKu
fHvP9i02in/AAoRg71T5cOTNBnVC7hNn5tKKWasff7CAv/Q/DMKGAJrCdAFUEHQw
DYGx10nWpAx1r1DmLy95deWyNwi2MAGrsHO7TGflk46UK43F9FyqiZqyJ1JLshkn
oOyGVi9MteQyWp0bmJHKkmfEjhq6n1+SE7bqxIYiHEeeM8JSMzwd8JtFk7VFSAu1
g+2VVfgOs+wK/OpuM+EitjmML99Nr5ZfP55kdlc+NuXk3kT6/xewntb16E+hXQf/
pNUM/XsT8TptKN+uqKVTwRwtDvrRHZ/ZoXkh1yOdZowQEXioDJpa9OrxrAdezCL6
NhoVbvd7TET8xK5FB0oJDKCPmnB4rDtcG19TOBqk40Bj9FDebdkdaldTZarqrPhv
7ILy3pqBbAJt+wO5wVJl9ucuFrUMxt/bgTITc7sRRvSRTWB/YiLix5+Afj1DWrkI
5XukiEPpIMchooI9swUtiQIDAQABo1AwTjAMBgNVHRMEBTADAQH/MB0GA1UdDgQW
BBSQNvb5e+FPn/QXX0qHW1s2xStGbzAfBgNVHSMEGDAWgBRBaaL+ivnFEkfwB44A
5j7t5jxWSzANBgkqhkiG9w0BAQsFAAOCAgEAxwXzftjSBheZgAv2p2yiNawFOcxo
EqnSAhVa07OYmDQdO6g1vRucrN1wKhoMUc6Y+jTjueoYQIqqCZDYt7TISafaaDGz
tqqy6YKrX4i10Mne98H9sfXxroeN2Exw5QMbWm+33G/W3iAzWiCcJYRuQbazXFm/
qvcugVgJsHH2tUWVDS6WllEMyQcwY1TpGQQfjNn239JBiKwBOxQSauhozxF/dJpb
LceqLR9/zOY5tp/Ll/wD7+wStT2tL36U5MIHpAle1afL5uMhxwICN0yk6TIIpbP4
X6xkBnrjdYlhdTwJEmsOc1Ny1MIKbAlsXsSpvD4C8OV+leGsDyKyxlhKvz0P7Hsj
+oijGGiXFtz9Q8wgyCXCXx8GQilPVHRCz8e6chaVDriMsTUm0hFjmCI1ncJgf7Pc
xwdVatCpdDNblMFHbFIVIXZZsxRYOlHSVV0VRfMKmGn9zUmEa5vW1BVg9AkmtGiJ
dzhevvRrmwQPGDG7HUMCoYmwD18/Jp9N9xF3G4AMt3ihcqSDZgGleKPuORxwtugM
tTBS/46nBuvvgsUba2ASOnszEw6BaTTBE7yKDXMHSrovqnT/ObPha5SNcCC92v2z
uLHyU7JzzLyzhgqqi/ZQ9Nwy2DyK1uTTfr3Bik0keD8kw9qKeeREYTcwAGSxLBya
DJoSX+eu1MKZbPM=
-----END CERTIFICATE-----
-----BEGIN CERTIFICATE-----
MIIFszCCA5ugAwIBAgIUNAKOnc+GreGboSUEUyHPDjWgITowDQYJKoZIhvcNAQEL
BQAwaTELMAkGA1UEBhMCTVgxEDAOBgNVBAgMB0R1cmFuZ28xEDAOBgNVBAcMB0R1
cmFuZ28xDjAMBgNVBAoMBURpbmdvMRQwEgYDVQQLDAtEZXZlbG9wbWVudDEQMA4G
A1UEAwwHVGVzdCBDQTAeFw0yNTEyMDQwMzQ2MDNaFw00MjA1MDkwMzQ2MDNaMGkx
CzAJBgNVBAYTAk1YMRAwDgYDVQQIDAdEdXJhbmdvMRAwDgYDVQQHDAdEdXJhbmdv
MQ4wDAYDVQQKDAVEaW5nbzEUMBIGA1UECwwLRGV2ZWxvcG1lbnQxEDAOBgNVBAMM
B1Rlc3QgQ0EwggIiMA0GCSqGSIb3DQEBAQUAA4ICDwAwggIKAoICAQDIoiKqXVpV
vZN2k9GoRYDTRGgCJFomDBgJqE5WdAg2s/3mcclaM5uEXYfmf1lFSwGRQGtKQs7M
pGaFzY6GnYFmVJ9QMe12gPavaLEqmz7xspVhSPvvpLjVj0REkMGa/XGmNe34p9F8
L48pZZ9ec1wpKBvsVoCz1GW9URMfcKOm+DJ1VUOkqHXV6hWJZQ8CPln6dzBET8SY
qQcVdE2blPHezk9YR5gUybJjTYoa/ieddAHIl4NlmwP6+ESFw1z35oU+qCuucaKD
CFvwH3sHZdhVUjfJYHvzO8AYkk/XsTlsqL6KbV2j3+LKYf046zFuCi2AdnU+uv55
dHBmQjC2gPKb0XPD88h8qxpb8OZjfw1UcjX+f0RwufboLmsJpodxvySno1rM1iO2
iX0sqrjk3x1naHgGjL6oqfDNdsR+WAagjZzDM7yorpZNgfip33HsmMhPE8erbhdY
R3hlI4MNhXkBFIpkTHUoXZSq71iziV0tS1Jn0B49zZjZI0OEhItamjkFSX58Z2wt
rvjPEKFnhIk9TO1xSA9xfEVZbxcL2nrhNpKr/HUq14hGWZZv62WbZIHgZtLGUc04
D6za0LedmifHWJqYTRgtyqacYhui+0szwTNNtLW4llIw/3mJ4BE7cP/OcRUf5CVk
oW7HlzdRE6ujAOdwiIYLWd53CvOkHheTuQIDAQABo1MwUTAdBgNVHQ4EFgQUQWmi
/or5xRJH8AeOAOY+7eY8VkswHwYDVR0jBBgwFoAUQWmi/or5xRJH8AeOAOY+7eY8
VkswDwYDVR0TAQH/BAUwAwEB/zANBgkqhkiG9w0BAQsFAAOCAgEAU6AbMTCMI/Qp
KheBZe7K02OYkiIKCAaEDVRyNJJ18mxFuaIewhCoYdlfuPeEEeqHha/FrZJGzxYY
TSl6u2QXGWFMx7b8Mx5BYBRzWgQXBVqVwqfqCO7E92MfSCyEA0zrwGs7QOvvf7i4
8BJBLRQvetsLUjJ2NDo1aRANAKwljP228RpWbDxWdj38aQCyzrjnHrm7fe+SN2QU
yCAH94+Ljmkrmo8vCH6dt+o2aVdfAXz9wWgy3UYUYtYeCBZ3BfY7dCfEIum9LqnE
jpCxqIqKMrU3u8p3+PK1OMs63hQAx89XvzIXSI+EHy5Exj50OwWjRFdJsrUO/w4y
OyRaFUfgD/KTdJ8AiRzjh1TQ5iHStbIRucs9cgaqqXsHQNS3IQXx06S1v+XUyEGY
SLc3iij051Dpu07jNn01FYcZpSWXJmVzeBioZH8pa0jNURvT8OQOV+Hzioee9dDZ
vf9g3MJ9eO2106SGoVE7ELJp9aNS2Zyt9T49pD4fCX4vaYqg52XgBz/ZX0L3So4C
4GagUvEcmMIwC3dIzOuf8lQP9NUYtZvjYRa5UbbGhwZ7hRDxKulteGjHvHfpTkP+
gG3DyC1EcmhD801DMrQfkTXYM8qSIp4fjIsIvPWOrXNlRjnvSmR2Q4CMyc4PRGId
1o8+xc/eOP/FFdz229Jnv84WRl+sfAE=
-----END CERTIFICATE-----
