Certificate:
    Data:
        Version: 3 (0x2)
        Serial Number: 2 (0x2)
        Signature Algorithm: sha256WithRSAEncryption
        Issuer: C=MX, ST=Durango, L=Durango, O=Dingo, OU=Development, CN=Test Intermediate
        Validity
            Not Before: Dec 15 14:18:32 2025 GMT
            Not After : Sep 14 14:18:32 2035 GMT
        Subject: C=MX, ST=Durango, L=Durango, O=Dingo, OU=Development, CN=Test Server
        Subject Public Key Info:
            Public Key Algorithm: rsaEncryption
                Public-Key: (4096 bit)
                Modulus:
                    00:e7:4c:82:ee:b9:06:2b:f0:18:d6:ad:84:0d:0b:
                    1d:59:f6:32:c0:07:23:98:3d:cb:e3:c5:83:ee:ad:
                    37:7b:dc:76:16:cb:f0:8d:f6:f2:c0:6e:54:2f:a6:
                    2a:30:80:65:e8:97:35:37:ad:80:b6:7b:d6:7c:40:
                    39:35:71:8b:4a:b6:03:c6:02:bb:72:b1:f5:0e:b9:
                    16:8d:5a:43:5a:ec:7b:f5:03:5b:6b:53:74:62:a6:
                    e6:63:5e:25:01:fd:2d:2c:87:8c:e2:de:de:48:a0:
                    75:fe:b3:65:61:4c:12:30:88:ac:53:0c:15:93:22:
                    f8:ba:a0:03:c0:31:af:67:b6:98:8e:08:c7:68:ca:
                    1f:da:f1:2c:ad:e4:d8:d9:a2:1d:b7:75:ba:b2:35:
                    e3:5b:3f:da:c1:eb:da:50:53:25:22:99:af:0a:68:
                    6d:31:ff:fb:43:6e:8f:93:1b:c4:90:e8:94:bf:8b:
                    78:b0:db:03:71:cb:e4:61:0f:1d:a0:f1:d7:c3:d7:
                    19:f0:59:86:2c:99:65:6d:6e:e3:74:f4:10:0a:b5:
                    ca:3f:d1:5a:b4:78:8f:6c:a0:24:87:de:e8:83:d6:
                    f3:e2:12:9f:27:1b:e9:33:f4:a1:a2:40:e0:2a:ce:
                    d1:0e:3a:58:2d:36:82:97:1d:c7:b2:0e:d5:9d:c9:
                    8e:57:84:15:f9:a8:41:07:04:52:76:5c:79:98:47:
                    28:8e:cf:20:c5:57:bd:60:5a:ca:b2:d9:97:7c:67:
                    43:f8:43:17:14:d2:8b:8c:f9:8b:8a:e8:c4:f7:9f:
                    df:bd:77:63:7d:1c:6c:d1:58:43:a5:87:74:12:f6:
                    c1:f1:26:8d:56:fa:a4:b6:74:3d:6b:84:ff:95:67:
                    17:c4:01:de:71:2a:cf:af:35:0c:3b:63:1b:25:c8:
                    1f:ad:8e:d9:6e:a5:f2:ac:2f:81:6e:9b:14:27:e8:
                    5e:24:69:75:1a:0c:1b:ed:b9:2b:46:b2:66:87:41:
                    ea:08:12:d8:aa:78:6a:35:b6:3d:6c:a0:27:6d:57:
                    2d:d7:06:02:a0:bf:79:a5:14:b0:d3:2b:6d:86:de:
                    09:93:27:53:16:e0:14:97:38:20:95:42:b3:00:c1:
                    ad:5b:3a:d1:56:6d:4c:6a:ba:fb:be:81:f0:64:cd:
                    35:0c:a8:b7:5a:f4:18:d5:44:74:65:46:87:34:9a:
                    e6:e6:75:0f:ee:82:54:7d:aa:f8:54:5e:70:04:4c:
                    8f:18:c3:d7:b3:5c:57:17:8b:dd:84:47:d7:e7:5a:
                    8b:29:af:d9:11:15:1d:b3:87:35:fe:ac:ca:b3:be:
                    3a:83:d3:32:ed:3a:ef:17:34:57:ce:3b:43:91:09:
                    e9:50:d9
                Exponent: 65537 (0x10001)
        X509v3 extensions:
            X509v3 Subject Key Identifier: 
                F0:C4:1C:60:A0:47:98:80:02:E7:AD:BA:47:DB:BA:74:43:88:58:EB
            X509v3 Authority Key Identifier: 
                72:94:15:74:24:C9:0A:2E:53:BD:47:DC:8C:FF:A4:FC:9E:D1:DC:65
    Signature Algorithm: sha256WithRSAEncryption
    Signature Value:
        ae:28:55:68:41:14:4d:fd:eb:8d:9d:fd:c9:26:65:c9:3e:7e:
        62:0d:54:9c:0d:b2:ea:33:27:36:23:55:90:34:8e:35:1b:d4:
        d1:2a:d8:5e:85:e1:3b:f2:cd:7f:5f:f9:b8:bb:b3:fe:2f:7e:
        fb:ac:8a:eb:28:8a:a1:97:99:97:b3:78:89:51:d9:73:55:2d:
        d4:55:e1:d5:91:4f:4c:e3:d5:71:1f:a6:4c:c4:3e:11:8c:3f:
        c3:b1:80:de:e5:6f:9a:b3:6b:ee:4a:46:fa:81:50:7c:80:ab:
        3b:ad:63:86:f1:ac:a3:d5:75:f2:f3:09:01:48:0c:34:34:1c:
        23:1a:0a:5c:59:24:c3:e6:eb:11:72:a4:9d:92:25:45:db:18:
        1c:99:76:3a:1e:68:6f:5d:e2:ce:59:45:ce:84:25:97:03:f5:
        9c:03:18:51:8f:bb:12:4b:b2:fd:26:b7:88:0b:0e:e7:c0:fc:
        fb:73:75:77:c8:28:aa:ba:30:6d:a2:93:bd:aa:08:53:02:a7:
        1e:3e:45:44:37:d5:41:26:1d:09:64:83:f1:53:5b:29:28:42:
        4b:b9:28:3e:65:69:c7:fc:99:55:8c:01:13:15:96:4f:04:0c:
        4b:de:e1:e1:d3:93:aa:20:e6:89:52:9c:62:90:66:ce:fe:9d:
        e7:98:f0:06:f0:03:79:42:02:86:db:22:b9:6f:92:38:59:9d:
        8b:35:52:dd:5c:b9:89:58:b7:1a:52:1c:bd:48:7c:17:aa:b9:
        16:08:fc:66:28:9d:e9:f3:10:16:77:5d:c4:9d:77:e9:d6:57:
        4b:d3:15:3c:ec:c6:1a:96:43:88:3f:a8:38:44:80:5c:01:bb:
        70:e1:c1:a3:85:83:cc:d8:a8:da:17:20:f3:ae:5a:2b:b0:fa:
        4c:fc:76:ee:32:71:88:16:8c:ec:d6:98:c5:36:8e:ad:d2:30:
        66:96:43:44:4b:a8:16:8f:6a:6b:8e:78:34:6b:9c:62:00:f6:
        b5:e2:bf:e1:31:85:67:7f:03:43:ef:2b:74:d1:3d:d7:ec:cc:
        12:a0:82:83:ba:f2:40:de:5a:23:87:3b:ae:8a:a5:da:5d:51:
        4a:fa:01:67:ce:78:96:4e:2f:5e:0e:37:d4:a0:59:73:79:64:
        09:45:e0:7a:5d:45:50:9c:5e:9d:e7:32:32:3f:cd:50:75:41:
        34:f1:1f:2f:59:5d:30:f9:c9:94:b5:ae:f4:5b:d1:03:ca:37:
        a0:63:3f:ec:e1:70:58:20:7a:d6:a8:50:d2:b0:40:5e:f6:cc:
        15:53:ec:54:b7:95:38:3e:fd:3c:cc:c7:72:d6:38:b2:4a:ce:
        6a:25:05:57:ca:71:99:2d
-----BEGIN CERTIFICATE-----
MIIFnTCCA4WgAwIBAgIBAjANBgkqhkiG9w0BAQsFADBzMQswCQYDVQQGEwJNWDEQ
MA4GA1UECAwHRHVyYW5nbzEQMA4GA1UEBwwHRHVyYW5nbzEOMAwGA1UECgwFRGlu
Z28xFDASBgNVBAsMC0RldmVsb3BtZW50MRowGAYDVQQDDBFUZXN0IEludGVybWVk
aWF0ZTAeFw0yNTEyMTUxNDE4MzJaFw0zNTA5MTQxNDE4MzJaMG0xCzAJBgNVBAYT
Ak1YMRAwDgYDVQQIDAdEdXJhbmdvMRAwDgYDVQQHDAdEdXJhbmdvMQ4wDAYDVQQK
DAVEaW5nbzEUMBIGA1UECwwLRGV2ZWxvcG1lbnQxFDASBgNVBAMMC1Rlc3QgU2Vy
dmVyMIICIjANBgkqhkiG9w0BAQEFAAOCAg8AMIICCgKCAgEA50yC7rkGK/AY1q2E
DQsdWfYywAcjmD3L48WD7q03e9x2FsvwjfbywG5UL6YqMIBl6Jc1N62AtnvWfEA5
NXGLSrYDxgK7crH1DrkWjVpDWux79QNba1N0YqbmY14lAf0tLIeM4t7eSKB1/rNl
YUwSMIisUwwVkyL4uqADwDGvZ7aYjgjHaMof2vEsreTY2aIdt3W6sjXjWz/aweva
UFMlIpmvCmhtMf/7Q26PkxvEkOiUv4t4sNsDccvkYQ8doPHXw9cZ8FmGLJllbW7j
dPQQCrXKP9FatHiPbKAkh97og9bz4hKfJxvpM/ShokDgKs7RDjpYLTaClx3Hsg7V
ncmOV4QV+ahBBwRSdlx5mEcojs8gxVe9YFrKstmXfGdD+EMXFNKLjPmLiujE95/f
vXdjfRxs0VhDpYd0EvbB8SaNVvqktnQ9a4T/lWcXxAHecSrPrzUMO2MbJcgfrY7Z
bqXyrC+BbpsUJ+heJGl1Ggwb7bkrRrJmh0HqCBLYqnhqNbY9bKAnbVct1wYCoL95
pRSw0yttht4JkydTFuAUlzgglUKzAMGtWzrRVm1Marr7voHwZM01DKi3WvQY1UR0
ZUaHNJrm5nUP7oJUfar4VF5wBEyPGMPXs1xXF4vdhEfX51qLKa/ZERUds4c1/qzK
s746g9My7TrvFzRXzjtDkQnpUNkCAwEAAaNCMEAwHQYDVR0OBBYEFPDEHGCgR5iA
AuetukfbunRDiFjrMB8GA1UdIwQYMBaAFHKUFXQkyQouU71H3Iz/pPye0dxlMA0G
CSqGSIb3DQEBCwUAA4ICAQCuKFVoQRRN/euNnf3JJmXJPn5iDVScDbLqMyc2I1WQ
NI41G9TRKtheheE78s1/X/m4u7P+L377rIrrKIqhl5mXs3iJUdlzVS3UVeHVkU9M
49VxH6ZMxD4RjD/DsYDe5W+as2vuSkb6gVB8gKs7rWOG8ayj1XXy8wkBSAw0NBwj
GgpcWSTD5usRcqSdkiVF2xgcmXY6HmhvXeLOWUXOhCWXA/WcAxhRj7sSS7L9JreI
Cw7nwPz7c3V3yCiqujBtopO9qghTAqcePkVEN9VBJh0JZIPxU1spKEJLuSg+ZWnH
/JlVjAETFZZPBAxL3uHh05OqIOaJUpxikGbO/p3nmPAG8AN5QgKG2yK5b5I4WZ2L
NVLdXLmJWLcaUhy9SHwXqrkWCPxmKJ3p8xAWd13EnXfp1ldL0xU87MYalkOIP6g4
RIBcAbtw4cGjhYPM2KjaFyDzrlorsPpM/HbuMnGIFozs1pjFNo6t0jBmlkNES6gW
j2prjng0a5xiAPa14r/hMYVnfwND7yt00T3X7MwSoIKDuvJA3lojhzuuiqXaXVFK
+gFnzniWTi9eDjfUoFlzeWQJReB6XUVQnF6d5zIyP81QdUE08R8vWV0w+cmUta70
W9EDyjegYz/s4XBYIHrWqFDSsEBe9swVU+xUt5U4Pv08zMdy1jiySs5qJQVXynGZ
LQ==
-----END CERTIFICATE-----
Certificate:
    Data:
        Version: 3 (0x2)
        Serial Number: 1 (0x1)
        Signature Algorithm: sha256WithRSAEncryption
        Issuer: C=MX, ST=Durango, L=Durango, O=Dingo, OU=Development, CN=Test CA
        Validity
            Not Before: Dec 15 14:18:32 2025 GMT
            Not After : Sep 14 14:18:32 2035 GMT
        Subject: C=MX, ST=Durango, L=Durango, O=Dingo, OU=Development, CN=Test Intermediate
        Subject Public Key Info:
            Public Key Algorithm: rsaEncryption
                Public-Key: (4096 bit)
                Modulus:
                    00:ca:84:16:33:e7:57:04:cc:45:88:17:be:e9:cb:
                    a0:43:ef:5b:6a:e6:3f:a4:86:b6:f7:3f:2f:b6:03:
                    ec:ae:89:37:93:46:12:bc:21:b5:76:00:57:1a:03:
                    17:d5:31:1b:29:3f:59:00:62:50:d6:8c:a4:cb:21:
                    97:59:7e:77:e3:c2:bb:83:a6:2b:6f:4d:a8:95:28:
                    7d:93:40:4e:91:2d:c2:9c:aa:96:71:1a:89:fd:88:
                    52:93:a0:d7:18:4f:99:cc:e5:48:21:81:19:95:9b:
                    70:30:0e:cd:ca:08:5a:44:06:70:6d:88:b2:8a:de:
                    20:75:e6:5a:cf:24:9e:48:6c:5f:8e:03:bc:ab:d1:
                    b8:6d:62:ec:4a:7d:ee:60:67:ff:27:23:65:48:6e:
                    a2:9e:7a:3d:c8:aa:27:11:d0:f2:92:07:85:25:5f:
                    6c:20:74:d0:74:47:58:85:cf:66:c5:26:d8:cd:8e:
                    9c:74:f8:24:f4:52:86:40:ec:07:ab:a8:d2:90:02:
                    b3:7a:bc:db:93:e1:da:a2:64:aa:6d:f8:fb:3c:c1:
                    31:7d:73:54:dc:56:09:ce:d6:cb:26:63:79:3d:37:
                    05:ae:58:9d:96:fb:2c:a2:df:70:5a:6b:65:d7:02:
                    fa:3e:85:63:1a:e0:ad:bb:2f:f2:5c:e3:7f:c4:cc:
                    a3:cc:8f:b3:e3:c7:8b:11:83:5c:f5:54:50:71:6c:
                    b3:b0:84:cc:18:62:cd:be:77:00:b5:18:b4:cc:d7:
                    9d:bc:4c:56:31:6f:b9:b3:90:f6:94:72:58:a9:b6:
                    d1:95:fb:3a:f5:44:8f:cc:e2:41:2c:4c:59:93:0a:
                    62:3c:3a:30:7d:33:97:84:39:df:30:04:f1:83:1e:
                    89:29:5e:b2:08:11:ac:26:28:78:9f:5f:90:80:80:
                    54:58:e2:9c:91:e8:e0:33:13:0c:c6:4d:46:9b:1d:
                    56:da:47:86:07:2a:b7:92:3e:81:8e:ab:e8:db:af:
                    b6:c0:c0:fe:9c:b7:b6:dc:87:e4:3c:6e:9e:d9:6d:
                    f7:87:18:28:4a:ca:92:62:0e:4e:25:8b:47:94:98:
                    bc:0c:17:5e:2d:c6:b5:0d:95:e4:80:7a:a9:bc:58:
                    28:f9:42:f1:2e:49:05:ca:3a:2e:ea:6e:dd:5c:2a:
                    78:68:fc:af:9b:55:89:a7:a8:4b:6e:d6:b3:83:d2:
                    a9:94:e6:c1:a3:9c:db:1b:92:b0:6c:26:91:7b:2c:
                    32:28:64:a8:e8:60:f6:ff:f5:8c:d1:b6:04:58:ef:
                    19:9e:54:35:40:31:10:fc:ff:8e:ac:3f:41:f8:79:
                    9a:ff:88:39:d5:45:07:d4:a9:33:03:f6:84:67:32:
                    1b:34:a7
                Exponent: 65537 (0x10001)
        X509v3 extensions:
            X509v3 Basic Constraints: 
                CA:TRUE
            X509v3 Subject Key Identifier: 
                72:94:15:74:24:C9:0A:2E:53:BD:47:DC:8C:FF:A4:FC:9E:D1:DC:65
            X509v3 Authority Key Identifier: 
                3A:6A:8A:F0:31:1C:26:75:FC:9A:E3:7E:72:D2:32:A2:BA:7B:5D:C5
    Signature Algorithm: sha256WithRSAEncryption
    Signature Value:
        c6:2b:9d:90:3a:02:69:8b:5a:f0:b9:ca:9f:c4:56:74:c2:c8:
        e5:a7:13:aa:e8:15:b8:86:04:b6:b3:7e:03:b6:bc:88:06:62:
        27:70:13:5a:cd:ff:13:75:c4:f0:9b:20:69:28:b0:ac:03:31:
        99:8f:fe:eb:41:96:75:14:43:16:24:d4:27:72:64:5c:66:37:
        01:e3:09:66:2d:0d:98:fb:20:2e:08:ba:68:e8:45:51:80:bd:
        80:07:73:57:9a:0f:40:f1:ff:de:c0:61:aa:88:3c:7b:1c:bc:
        89:be:40:2c:73:de:69:1c:80:a9:99:5e:53:c6:35:63:a4:cb:
        db:65:ea:a6:5c:5b:ca:62:06:c1:35:f4:1c:c4:54:eb:02:f6:
        40:7a:1a:98:4a:e6:f2:24:72:77:cb:f0:05:14:54:72:ce:10:
        28:a8:47:61:ef:13:d1:ae:0f:87:06:f5:46:b7:a1:47:91:77:
        84:82:16:45:31:84:98:3c:88:8d:9f:3f:a7:e7:cb:61:25:eb:
        91:2c:6b:91:e6:c9:ba:7a:90:eb:7a:92:60:3a:cf:53:9e:87:
        e5:a5:6b:01:5c:56:b4:13:fd:9f:d2:d5:ac:28:89:f3:23:67:
        29:d0:cc:da:b1:fe:41:ea:0f:19:06:49:f9:fc:55:a6:a1:63:
        40:9e:79:0c:f4:af:ba:d8:4a:4f:ef:d5:4a:2e:c1:51:89:2d:
        06:90:67:3b:d9:b5:82:4f:f5:a2:09:61:49:1c:a0:04:93:e1:
        73:8a:71:54:ff:e6:5b:03:02:ed:06:ec:ca:26:29:10:5f:db:
        92:ea:a5:f6:f2:02:46:86:c9:1b:1f:80:ab:0a:55:76:be:01:
        f8:aa:21:ba:86:0b:ec:ed:f6:53:f6:ba:72:ac:41:7a:fe:3d:
        2e:a4:c7:32:70:54:e1:7b:d8:90:e4:81:ec:fc:fe:f2:b5:fd:
        83:68:92:6c:5b:33:ae:2f:e3:db:d7:0e:fa:4e:17:24:12:bf:
        3d:a1:9e:e3:09:11:8f:05:1a:8f:87:fe:4c:d6:45:3c:35:74:
        71:90:bc:c0:5b:bb:7b:7b:2a:23:ae:07:3f:50:ce:64:6d:74:
        36:ec:7d:a4:a5:07:bf:5e:d5:84:6b:63:b0:89:1e:e4:a8:1e:
        8c:42:00:0f:20:8d:1c:52:52:bc:3c:90:c5:ee:36:f8:f1:c8:
        20:f0:ce:50:3d:9f:46:9e:72:fe:1c:54:c7:be:b0:53:51:6d:
        61:dc:13:23:84:f6:1d:f9:15:c6:95:59:1d:90:48:9f:f1:c7:
        2c:c5:07:00:22:1f:99:ae:42:22:13:5b:c2:06:2c:8f:b5:1c:
        17:28:12:b5:f0:4b:74:fd
-----BEGIN CERTIFICATE-----
MIIFpzCCA4+gAwIBAgIBATANBgkqhkiG9w0BAQsFADBpMQswCQYDVQQGEwJNWDEQ
MA4GA1UECAwHRHVyYW5nbzEQMA4GA1UEBwwHRHVyYW5nbzEOMAwGA1UECgwFRGlu
Z28xFDASBgNVBAsMC0RldmVsb3BtZW50MRAwDgYDVQQDDAdUZXN0IENBMB4XDTI1
MTIxNTE0MTgzMloXDTM1MDkxNDE0MTgzMlowczELMAkGA1UEBhMCTVgxEDAOBgNV
BAgMB0R1cmFuZ28xEDAOBgNVBAcMB0R1cmFuZ28xDjAMBgNVBAoMBURpbmdvMRQw
EgYDVQQLDAtEZXZlbG9wbWVudDEaMBgGA1UEAwwRVGVzdCBJbnRlcm1lZGlhdGUw
ggIiMA0GCSqGSIb3DQEBAQUAA4ICDwAwggIKAoICAQDKhBYz51cEzEWIF77py6BD
71tq5j+khrb3Py+2A+yuiTeTRhK8IbV2AFcaAxfVMRspP1kAYlDWjKTLIZdZfnfj
wruDpitvTaiVKH2TQE6RLcKcqpZxGon9iFKToNcYT5nM5UghgRmVm3AwDs3KCFpE
BnBtiLKK3iB15lrPJJ5IbF+OA7yr0bhtYuxKfe5gZ/8nI2VIbqKeej3IqicR0PKS
B4UlX2wgdNB0R1iFz2bFJtjNjpx0+CT0UoZA7AerqNKQArN6vNuT4dqiZKpt+Ps8
wTF9c1TcVgnO1ssmY3k9NwWuWJ2W+yyi33Baa2XXAvo+hWMa4K27L/Jc43/EzKPM
j7Pjx4sRg1z1VFBxbLOwhMwYYs2+dwC1GLTM1528TFYxb7mzkPaUclipttGV+zr1
RI/M4kEsTFmTCmI8OjB9M5eEOd8wBPGDHokpXrIIEawmKHifX5CAgFRY4pyR6OAz
EwzGTUabHVbaR4YHKreSPoGOq+jbr7bAwP6ct7bch+Q8bp7ZbfeHGChKypJiDk4l
i0eUmLwMF14txrUNleSAeqm8WCj5QvEuSQXKOi7qbt1cKnho/K+bVYmnqEtu1rOD
0qmU5sGjnNsbkrBsJpF7LDIoZKjoYPb/9YzRtgRY7xmeVDVAMRD8/46sP0H4eZr/
iDnVRQfUqTMD9oRnMhs0pwIDAQABo1AwTjAMBgNVHRMEBTADAQH/MB0GA1UdDgQW
BBRylBV0JMkKLlO9R9yM/6T8ntHcZTAfBgNVHSMEGDAWgBQ6aorwMRwmdfya435y
0jKiuntdxTANBgkqhkiG9w0BAQsFAAOCAgEAxiudkDoCaYta8LnKn8RWdMLI5acT
qugVuIYEtrN+A7a8iAZiJ3ATWs3/E3XE8JsgaSiwrAMxmY/+60GWdRRDFiTUJ3Jk
XGY3AeMJZi0NmPsgLgi6aOhFUYC9gAdzV5oPQPH/3sBhqog8exy8ib5ALHPeaRyA
qZleU8Y1Y6TL22XqplxbymIGwTX0HMRU6wL2QHoamErm8iRyd8vwBRRUcs4QKKhH
Ye8T0a4Phwb1RrehR5F3hIIWRTGEmDyIjZ8/p+fLYSXrkSxrkebJunqQ63qSYDrP
U56H5aVrAVxWtBP9n9LVrCiJ8yNnKdDM2rH+QeoPGQZJ+fxVpqFjQJ55DPSvuthK
T+/VSi7BUYktBpBnO9m1gk/1oglhSRygBJPhc4pxVP/mWwMC7QbsyiYpEF/bkuql
9vICRobJGx+AqwpVdr4B+KohuoYL7O32U/a6cqxBev49LqTHMnBU4XvYkOSB7Pz+
8rX9g2iSbFszri/j29cO+k4XJBK/PaGe4wkRjwUaj4f+TNZFPDV0cZC8wFu7e3sq
I64HP1DOZG10Nux9pKUHv17VhGtjsIke5KgejEIADyCNHFJSvDyQxe42+PHIIPDO
UD2fRp5y/hxUx76wU1FtYdwTI4T2HfkVxpVZHZBIn/HHLMUHACIfma5CIhNbwgYs
j7UcFygStfBLdP0=
-----END CERTIFICATE-----
-----BEGIN CERTIFICATE-----
MIIFszCCA5ugAwIBAgIUf9d8X/YRCU5n5AvzG9UkfqSGPR0wDQYJKoZIhvcNAQEL
BQAwaTELMAkGA1UEBhMCTVgxEDAOBgNVBAgMB0R1cmFuZ28xEDAOBgNVBAcMB0R1
cmFuZ28xDjAMBgNVBAoMBURpbmdvMRQwEgYDVQQLDAtEZXZlbG9wbWVudDEQMA4G
A1UEAwwHVGVzdCBDQTAeFw0yNTEyMTUxNDE4MzFaFw00MjA1MjAxNDE4MzFaMGkx
CzAJBgNVBAYTAk1YMRAwDgYDVQQIDAdEdXJhbmdvMRAwDgYDVQQHDAdEdXJhbmdv
MQ4wDAYDVQQKDAVEaW5nbzEUMBIGA1UECwwLRGV2ZWxvcG1lbnQxEDAOBgNVBAMM
B1Rlc3QgQ0EwggIiMA0GCSqGSIb3DQEBAQUAA4ICDwAwggIKAoICAQDxBXxOVL1G
ETYQletNJi/7Jm3BSwxWHB8zvGgRYjyTX8K5J7eKDWBi0rq/m6LXtb2ZvHN040u3
fnftYheDIrzn716yGM1M4KzUfNPCwGJqc8Um/KlGYENIyhE+EKECVgQeXtAgTuR9
7RoTR54zP7/NCJ5S2ujSUGjZUB7P4la0PZ6XD4d6ObxXqgzSabXKTSDnkjqpV87q
dN8mbvlsfZBW1CTP/kRUIBoljTqEygy8vbevJrEAg0tut8xdqh2Mv7A1mSfDNsXK
Q77YTKhgHj0RJcaeJFNMRhOYUb2CZn58aDQBETGzECB0bBtm8wSqYa5baYrtUos9
x2cB8I+3CxNd/6N53Aq4/5JzPmvBdlCCq67ZUX4f1xcAVSrB8ZXjUn6sPX2hxt2I
BNi/g3ortKDyfvY1nB9WinfuAehpro8nxIw6lkcv2ZZUjc2KzK1ibXX8x6NCMDBA
Ret7LGZ29OWuyNZQYD1CJGRlUAGScayaoJrCzXVYh2fuEYzRPdQl8nN6ilgm+LlX
g4pQmog5EsOtLoYKFKXIawQ3WbkjFrKLG5bwxTQ5U1r9dG1exbxFzH1RTbtK9uBW
43uoKF+5DhrBwI5+WDrYygO0b3c0RPTPCAVCjlXKEG1B72YD/Rh9qrFexV3tS3ym
ygm0oMqkKAJlP6bVgqzDNrAmXiDpN5s2xQIDAQABo1MwUTAdBgNVHQ4EFgQUOmqK
8DEcJnX8muN+ctIyorp7XcUwHwYDVR0jBBgwFoAUOmqK8DEcJnX8muN+ctIyorp7
XcUwDwYDVR0TAQH/BAUwAwEB/zANBgkqhkiG9w0BAQsFAAOCAgEA01iPhpxezVE5
kZ4Yis1ZzGZFnQrT5yXoeHEzmEn4ZPyHZbzbVZq+4fakA8DgYMe0kLVmmCzZa93g
KH0RkmOOM5qCPhZAL+skPp6tVS6qNEuSmjW9nUmY+w41n/Tk2ISeVGeInfAVtsBM
leEBymFOqKTApjDqtgH3oi9yWSkTd1rilYw3NGiPjMqeOFEpSQ04bHmD69+995qM
BXQywEsX5dCMtoKIJ5wY+zVMtXdLGNEi/N08kvwToRTb64THbf4keNpTPsT2VARh
SoJ8YjbdZPtPbevceEax9SehKJLgElLVBDvDq78UiyGqXwRI7MkwMgxK1XL87mWc
IleAULvuk8qwmpJ2xb9JKzVUnvFTSh9kZLFZ18Aa/K/1jlI9pAKr5N0h0lozQj7h
yqWYWQkUk8wT7DRRdsFzlfR+UfUktlMAaUfw1+D+Pia7W8lIORhwz0gk0axQQVVd
uW/lr2Dn8O5UB318p/GTFy6TRueQnDquaU7pN452zfUvZPGG/O0eNbIwf6Q0dZIe
kdcG8BfVgNE3aC5+liuRe/nQ1V/f+CDCGWO0GTsKyldpuo/86x7VuTw/VjQ7r682
TgMe9VN+aDe2juGG+voJkuE6DeLAkhvFWpFlwdCSbSiepSBC6COmeW3UhVXdDj8Q
MkYnRqy5y31l5FMHS3CAEYOeGDcehjU=
-----END CERTIFICATE-----
