Certificate:
    Data:
        Version: 3 (0x2)
        Serial Number: 3 (0x3)
        Signature Algorithm: sha256WithRSAEncryption
        Issuer: C=MX, ST=Durango, L=Durango, O=Dingo, OU=Development, CN=Test Intermediate
        Validity
            Not Before: Dec 15 14:18:32 2025 GMT
            Not After : Sep 14 14:18:32 2035 GMT
        Subject: C=MX, ST=Durango, L=Durango, O=Dingo, OU=Development, CN=Test Client
        Subject Public Key Info:
            Public Key Algorithm: rsaEncryption
                Public-Key: (4096 bit)
                Modulus:
                    00:83:71:2b:51:f4:4e:da:72:2c:8a:69:26:e0:a9:
                    7f:26:cf:dc:72:fb:3f:8d:a5:d5:fe:1b:28:60:53:
                    3d:30:38:07:9f:00:4e:20:48:57:13:49:f7:8d:a8:
                    d6:a6:ae:c1:d6:b2:c7:3e:7d:29:95:99:fe:95:8d:
                    f4:b8:d4:69:50:3f:70:44:05:9c:7e:16:60:83:5e:
                    3c:4e:77:08:59:da:76:f7:aa:55:14:d7:18:52:e3:
                    d7:32:a8:af:4d:e6:43:14:36:6d:58:a5:c7:0d:49:
                    f9:b0:9a:53:8e:89:1d:8d:ab:75:1c:f9:4c:a4:85:
                    3e:ec:3f:d6:cd:7e:a6:4c:fd:91:53:b2:02:73:a2:
                    6d:99:f2:ab:c7:c0:1c:bb:9e:45:64:55:c8:16:6b:
                    88:58:70:9f:63:ca:cd:f1:28:03:35:b6:b8:00:52:
                    c6:b7:14:32:61:48:25:74:b7:4f:11:a5:05:f9:99:
                    d2:22:09:b5:7b:1c:d0:46:72:10:d4:a4:10:7e:b8:
                    78:c4:5b:4b:4e:19:1c:4d:5f:b8:5b:98:fd:1d:99:
                    a2:3b:3e:12:78:d9:94:64:cf:c2:74:5b:a7:62:22:
                    8b:9d:5c:cf:9b:99:69:ff:12:5f:7a:ef:87:37:b8:
                    5f:2e:7d:02:f8:f8:b7:a5:e6:2b:3c:15:4b:13:0e:
                    d9:e7:9e:54:d0:b9:ab:77:a3:ec:19:3a:88:bb:34:
                    ba:25:8a:a6:b6:b9:b3:f3:a0:8e:7b:8a:76:8e:48:
                    72:f2:77:06:71:3c:47:f5:47:78:2d:1b:06:1d:88:
                    42:ad:f6:b1:0b:c1:52:17:dd:0a:5f:80:df:e6:80:
                    54:df:2d:7c:ca:1e:83:3b:b2:f2:e5:3f:66:89:3c:
                    94:30:d6:b4:3e:ed:fc:d9:2e:b6:a9:24:52:b3:24:
                    37:83:0b:22:70:aa:ad:5c:77:50:27:6a:01:df:20:
                    1b:57:17:63:fe:a1:00:6e:0a:bb:6a:15:4d:c6:3c:
                    97:e9:b9:33:ec:fa:b5:c8:88:b5:e4:c7:05:8e:71:
                    66:bf:3b:29:93:91:e4:65:29:cc:0a:35:eb:4d:e2:
                    5b:c4:ef:9c:f7:3f:1c:d4:24:3e:cb:ec:f1:d0:10:
                    e0:9d:c1:44:fe:d9:06:e4:28:42:a6:fc:a5:ce:25:
                    96:a2:66:e0:3e:55:ba:40:72:eb:65:94:d8:0d:92:
                    bc:1e:af:03:3a:a6:2b:f8:e8:0a:cc:9c:7d:ee:89:
                    d8:fd:b3:e2:46:cf:9b:02:db:29:71:39:f9:08:4a:
                    7a:d3:77:d4:58:95:77:75:2f:04:39:05:8d:3c:0e:
                    b1:10:74:a3:08:8f:f2:09:f7:0d:c8:24:fb:6f:0c:
                    61:42:9f
                Exponent: 65537 (0x10001)
        X509v3 extensions:
            X509v3 Subject Key Identifier: 
                17:DB:D5:DA:DE:68:EC:FE:54:D7:F5:40:B5:78:57:D2:26:F5:3E:2C
            X509v3 Authority Key Identifier: 
                72:94:15:74:24:C9:0A:2E:53:BD:47:DC:8C:FF:A4:FC:9E:D1:DC:65
    Signature Algorithm: sha256WithRSAEncryption
    Signature Value:
        50:84:7b:ca:15:fe:de:66:4d:42:df:25:81:33:f9:a7:4c:8a:
        00:82:3f:d8:9c:28:74:a3:4f:00:e1:ef:8e:16:1c:b9:a8:60:
        1f:86:0e:87:03:63:4c:b4:65:a2:93:53:62:f3:f1:45:d7:21:
        64:d0:1f:2c:72:6b:0c:94:7b:3c:7e:55:0f:47:e4:5a:1f:99:
        24:6f:d1:85:fe:ff:1d:f1:f9:27:e8:e2:d3:a9:84:41:8c:4e:
        a3:b5:0c:e2:ba:80:df:72:e4:c3:52:c2:85:e2:e3:b3:97:3d:
        d5:19:18:78:5e:08:a2:11:ff:c9:a4:a1:e9:d9:21:cd:43:ea:
        ce:65:3b:66:1c:33:e4:d6:7e:7c:d8:a7:d2:19:cd:7e:ec:77:
        6c:6c:0b:6b:44:72:e3:9b:44:a8:cd:62:c7:af:05:56:a7:21:
        35:0d:6b:e7:79:da:10:3b:6f:e6:55:6a:52:58:6c:df:40:9e:
        92:c1:a7:da:e6:ed:de:6b:9c:54:61:e1:21:c4:32:98:31:b7:
        03:4a:b4:b6:25:09:05:89:d8:fa:fc:e8:7b:d6:57:f5:8e:8d:
        47:52:19:cc:a5:f5:d9:1e:c6:1c:77:cd:26:12:6e:6d:b9:25:
        51:3d:63:0e:30:fa:68:8a:5c:57:75:f4:1c:8e:54:aa:06:a7:
        48:26:ad:82:1a:b3:fc:7c:f7:9a:ba:3d:f7:27:f2:67:6f:20:
        7c:79:68:59:21:b2:20:8b:08:0a:3f:29:3e:c1:91:ba:e9:ff:
        7b:3e:b2:3c:d8:e0:66:87:59:06:70:c5:b4:b7:54:5b:53:48:
        5d:77:f9:42:1b:f5:f8:cf:62:d8:19:84:0d:cb:28:c2:92:f8:
        be:fe:86:fb:94:0b:18:78:20:2d:e2:ce:f8:44:db:52:bf:aa:
        37:03:52:22:15:e5:4c:8b:3e:6e:b3:26:ce:b2:6a:08:dd:23:
        81:3f:6b:4c:bd:62:e1:e5:f5:ab:21:29:10:36:5b:67:05:b5:
        64:fa:3f:7e:9e:9c:d7:d8:2a:74:f8:36:da:9a:e5:cc:66:c7:
        4c:df:3e:c2:26:fa:5e:09:fb:c1:5a:66:04:17:f4:61:90:6f:
        47:87:17:58:58:58:6b:8b:7d:b2:4e:91:0c:f5:e2:39:af:1d:
        c5:1f:7c:9d:e4:b9:2b:42:e3:c4:a2:a4:67:e2:43:69:1e:af:
        8c:c7:59:04:51:85:51:ed:ae:8d:c8:e9:2b:bb:6a:ac:df:5d:
        c0:63:b1:cc:e6:78:bd:68:b0:a9:f9:bd:23:ab:36:21:4f:1e:
        b0:88:15:dc:2e:5e:ed:48:ff:07:e5:64:b6:ac:10:45:c4:b7:
        45:1f:85:bd:db:dc:01:12
-----BEGIN CERTIFICATE-----
MIIFnTCCA4WgAwIBAgIBAzANBgkqhkiG9w0BAQsFADBzMQswCQYDVQQGEwJNWDEQ
MA4GA1UECAwHRHVyYW5nbzEQMA4GA1UEBwwHRHVyYW5nbzEOMAwGA1UECgwFRGlu
Z28xFDASBgNVBAsMC0RldmVsb3BtZW50MRowGAYDVQQDDBFUZXN0IEludGVybWVk
aWF0ZTAeFw0yNTEyMTUxNDE4MzJaFw0zNTA5MTQxNDE4MzJaMG0xCzAJBgNVBAYT
Ak1YMRAwDgYDVQQIDAdEdXJhbmdvMRAwDgYDVQQHDAdEdXJhbmdvMQ4wDAYDVQQK
DAVEaW5nbzEUMBIGA1UECwwLRGV2ZWxvcG1lbnQxFDASBgNVBAMMC1Rlc3QgQ2xp
ZW50MIICIjANBgkqhkiG9w0BAQEFAAOCAg8AMIICCgKCAgEAg3ErUfRO2nIsimkm
4Kl/Js/ccvs/jaXV/hsoYFM9MDgHnwBOIEhXE0n3jajWpq7B1rLHPn0plZn+lY30
uNRpUD9wRAWcfhZgg148TncIWdp296pVFNcYUuPXMqivTeZDFDZtWKXHDUn5sJpT
jokdjat1HPlMpIU+7D/WzX6mTP2RU7ICc6JtmfKrx8Acu55FZFXIFmuIWHCfY8rN
8SgDNba4AFLGtxQyYUgldLdPEaUF+ZnSIgm1exzQRnIQ1KQQfrh4xFtLThkcTV+4
W5j9HZmiOz4SeNmUZM/CdFunYiKLnVzPm5lp/xJfeu+HN7hfLn0C+Pi3peYrPBVL
Ew7Z555U0Lmrd6PsGTqIuzS6JYqmtrmz86COe4p2jkhy8ncGcTxH9Ud4LRsGHYhC
rfaxC8FSF90KX4Df5oBU3y18yh6DO7Ly5T9miTyUMNa0Pu382S62qSRSsyQ3gwsi
cKqtXHdQJ2oB3yAbVxdj/qEAbgq7ahVNxjyX6bkz7Pq1yIi15McFjnFmvzspk5Hk
ZSnMCjXrTeJbxO+c9z8c1CQ+y+zx0BDgncFE/tkG5ChCpvylziWWombgPlW6QHLr
ZZTYDZK8Hq8DOqYr+OgKzJx97onY/bPiRs+bAtspcTn5CEp603fUWJV3dS8EOQWN
PA6xEHSjCI/yCfcNyCT7bwxhQp8CAwEAAaNCMEAwHQYDVR0OBBYEFBfb1dreaOz+
VNf1QLV4V9Im9T4sMB8GA1UdIwQYMBaAFHKUFXQkyQouU71H3Iz/pPye0dxlMA0G
CSqGSIb3DQEBCwUAA4ICAQBQhHvKFf7eZk1C3yWBM/mnTIoAgj/YnCh0o08A4e+O
Fhy5qGAfhg6HA2NMtGWik1Ni8/FF1yFk0B8scmsMlHs8flUPR+RaH5kkb9GF/v8d
8fkn6OLTqYRBjE6jtQziuoDfcuTDUsKF4uOzlz3VGRh4XgiiEf/JpKHp2SHNQ+rO
ZTtmHDPk1n582KfSGc1+7HdsbAtrRHLjm0SozWLHrwVWpyE1DWvnedoQO2/mVWpS
WGzfQJ6Swafa5u3ea5xUYeEhxDKYMbcDSrS2JQkFidj6/Oh71lf1jo1HUhnMpfXZ
HsYcd80mEm5tuSVRPWMOMPpoilxXdfQcjlSqBqdIJq2CGrP8fPeauj33J/JnbyB8
eWhZIbIgiwgKPyk+wZG66f97PrI82OBmh1kGcMW0t1RbU0hdd/lCG/X4z2LYGYQN
yyjCkvi+/ob7lAsYeCAt4s74RNtSv6o3A1IiFeVMiz5usybOsmoI3SOBP2tMvWLh
5fWrISkQNltnBbVk+j9+npzX2Cp0+DbamuXMZsdM3z7CJvpeCfvBWmYEF/RhkG9H
hxdYWFhri32yTpEM9eI5rx3FH3yd5LkrQuPEoqRn4kNpHq+Mx1kEUYVR7a6NyOkr
u2qs313AY7HM5ni9aLCp+b0jqzYhTx6wiBXcLl7tSP8H5WS2rBBFxLdFH4W929wB
Eg==
-----END CERTIFICATE-----
