Certificate:
    Data:
        Version: 3 (0x2)
        Serial Number: 1 (0x1)
        Signature Algorithm: sha256WithRSAEncryption
        Issuer: C=MX, ST=Durango, L=Durango, O=Dingo, OU=Development, CN=Test CA
        Validity
            Not Before: Dec  4 03:46:04 2025 GMT
            Not After : Sep  3 03:46:04 2035 GMT
        Subject: C=MX, ST=Durango, L=Durango, O=Dingo, OU=Development, CN=Test Intermediate
        Subject Public Key Info:
            Public Key Algorithm: rsaEncryption
                Public-Key: (4096 bit)
                Modulus:
                    00:d4:28:6a:69:70:b7:5e:d7:9e:c2:0c:dd:17:2b:
                    bf:39:f3:12:38:b4:be:f3:7b:8f:58:a3:f5:0a:19:
                    6b:24:1c:f3:6e:74:26:ad:c7:92:1a:88:03:19:b7:
                    ae:18:0c:1b:fe:0a:77:60:42:ca:06:47:26:ad:56:
                    e9:7f:fc:e4:74:6e:49:2b:23:a4:50:d3:3c:d9:be:
                    2b:2a:00:f6:ef:6f:8a:d2:25:50:6d:5b:ad:2f:68:
                    7b:1f:73:77:81:20:73:4f:26:95:bc:6e:a3:2c:24:
                    b2:3f:c2:70:06:02:4d:c9:f7:c9:64:68:71:36:54:
                    d9:d5:c1:97:42:44:66:c9:db:e8:93:34:9d:66:9c:
                    3a:90:04:a8:8c:7e:4e:65:e7:24:56:65:0c:15:bf:
                    ef:c0:3c:3d:04:73:90:ff:7a:e2:ae:7c:7b:cf:f6:
                    2d:36:8a:7f:c0:02:84:60:ef:54:f9:70:e4:cd:06:
                    75:42:ee:13:67:e6:d2:8a:59:ab:1f:7f:b0:80:bf:
                    f4:3f:0c:c2:86:00:9a:c2:74:01:54:10:74:30:0d:
                    81:b1:d7:49:d6:a4:0c:75:af:50:e6:2f:2f:79:75:
                    e5:b2:37:08:b6:30:01:ab:b0:73:bb:4c:67:e5:93:
                    8e:94:2b:8d:c5:f4:5c:aa:89:9a:b2:27:52:4b:b2:
                    19:27:a0:ec:86:56:2f:4c:b5:e4:32:5a:9d:1b:98:
                    91:ca:92:67:c4:8e:1a:ba:9f:5f:92:13:b6:ea:c4:
                    86:22:1c:47:9e:33:c2:52:33:3c:1d:f0:9b:45:93:
                    b5:45:48:0b:b5:83:ed:95:55:f8:0e:b3:ec:0a:fc:
                    ea:6e:33:e1:22:b6:39:8c:2f:df:4d:af:96:5f:3f:
                    9e:64:76:57:3e:36:e5:e4:de:44:fa:ff:17:b0:9e:
                    d6:f5:e8:4f:a1:5d:07:ff:a4:d5:0c:fd:7b:13:f1:
                    3a:6d:28:df:ae:a8:a5:53:c1:1c:2d:0e:fa:d1:1d:
                    9f:d9:a1:79:21:d7:23:9d:66:8c:10:11:78:a8:0c:
                    9a:5a:f4:ea:f1:ac:07:5e:cc:22:fa:36:1a:15:6e:
                    f7:7b:4c:44:fc:c4:ae:45:07:4a:09:0c:a0:8f:9a:
                    70:78:ac:3b:5c:1b:5f:53:38:1a:a4:e3:40:63:f4:
                    50:de:6d:d9:1d:6a:57:53:65:aa:ea:ac:f8:6f:ec:
                    82:f2:de:9a:81:6c:02:6d:fb:03:b9:c1:52:65:f6:
                    e7:2e:16:b5:0c:c6:df:db:81:32:13:73:bb:11:46:
                    f4:91:4d:60:7f:62:22:e2:c7:9f:80:7e:3d:43:5a:
                    b9:08:e5:7b:a4:88:43:e9:20:c7:21:a2:82:3d:b3:
                    05:2d:89
                Exponent: 65537 (0x10001)
        X509v3 extensions:
            X509v3 Basic Constraints: 
                CA:TRUE
            X509v3 Subject Key Identifier: 
                90:36:F6:F9:7B:E1:4F:9F:F4:17:5F:4A:87:5B:5B:36:C5:2B:46:6F
            X509v3 Authority Key Identifier: 
                41:69:A2:FE:8A:F9:C5:12:47:F0:07:8E:00:E6:3E:ED:E6:3C:56:4B
    Signature Algorithm: sha256WithRSAEncryption
    Signature Value:
        c7:05:f3:7e:d8:d2:06:17:99:80:0b:f6:a7:6c:a2:35:ac:05:
        39:cc:68:12:a9:d2:02:15:5a:d3:b3:98:98:34:1d:3b:a8:35:
        bd:1b:9c:ac:dd:70:2a:1a:0c:51:ce:98:fa:34:e3:b9:ea:18:
        40:8a:aa:09:90:d8:b7:b4:c8:49:a7:da:68:31:b3:b6:aa:b2:
        e9:82:ab:5f:88:b5:d0:c9:de:f7:c1:fd:b1:f5:f1:ae:87:8d:
        d8:4c:70:e5:03:1b:5a:6f:b7:dc:6f:d6:de:20:33:5a:20:9c:
        25:84:6e:41:b6:b3:5c:59:bf:aa:f7:2e:81:58:09:b0:71:f6:
        b5:45:95:0d:2e:96:96:51:0c:c9:07:30:63:54:e9:19:04:1f:
        8c:d9:f6:df:d2:41:88:ac:01:3b:14:12:6a:e8:68:cf:11:7f:
        74:9a:5b:2d:c7:aa:2d:1f:7f:cc:e6:39:b6:9f:cb:97:fc:03:
        ef:ec:12:b5:3d:ad:2f:7e:94:e4:c2:07:a4:09:5e:d5:a7:cb:
        e6:e3:21:c7:02:02:37:4c:a4:e9:32:08:a5:b3:f8:5f:ac:64:
        06:7a:e3:75:89:61:75:3c:09:12:6b:0e:73:53:72:d4:c2:0a:
        6c:09:6c:5e:c4:a9:bc:3e:02:f0:e5:7e:95:e1:ac:0f:22:b2:
        c6:58:4a:bf:3d:0f:ec:7b:23:fa:88:a3:18:68:97:16:dc:fd:
        43:cc:20:c8:25:c2:5f:1f:06:42:29:4f:54:74:42:cf:c7:ba:
        72:16:95:0e:b8:8c:b1:35:26:d2:11:63:98:22:35:9d:c2:60:
        7f:b3:dc:c7:07:55:6a:d0:a9:74:33:5b:94:c1:47:6c:52:15:
        21:76:59:b3:14:58:3a:51:d2:55:5d:15:45:f3:0a:98:69:fd:
        cd:49:84:6b:9b:d6:d4:15:60:f4:09:26:b4:68:89:77:38:5e:
        be:f4:6b:9b:04:0f:18:31:bb:1d:43:02:a1:89:b0:0f:5f:3f:
        26:9f:4d:f7:11:77:1b:80:0c:b7:78:a1:72:a4:83:66:01:a5:
        78:a3:ee:39:1c:70:b6:e8:0c:b5:30:52:ff:8e:a7:06:eb:ef:
        82:c5:1b:6b:60:12:3a:7b:33:13:0e:81:69:34:c1:13:bc:8a:
        0d:73:07:4a:ba:2f:aa:74:ff:39:b3:e1:6b:94:8d:70:20:bd:
        da:fd:b3:b8:b1:f2:53:b2:73:cc:bc:b3:86:0a:aa:8b:f6:50:
        f4:dc:32:d8:3c:8a:d6:e4:d3:7e:bd:c1:8a:4d:24:78:3f:24:
        c3:da:8a:79:e4:44:61:37:30:00:64:b1:2c:1c:9a:0c:9a:12:
        5f:e7:ae:d4:c2:99:6c:f3
-----BEGIN CERTIFICATE-----
MIIFpzCCA4+gAwIBAgIBATANBgkqhkiG9w0BAQsFADBpMQswCQYDVQQGEwJNWDEQ
MA4GA1UECAwHRHVyYW5nbzEQMA4GA1UEBwwHRHVyYW5nbzEOMAwGA1UECgwFRGlu
Z28xFDASBgNVBAsMC0RldmVsb3BtZW50MRAwDgYDVQQDDAdUZXN0IENBMB4XDTI1
MTIwNDAzNDYwNFoXDTM1MDkwMzAzNDYwNFowczELMAkGA1UEBhMCTVgxEDAOBgNV
BAgMB0R1cmFuZ28xEDAOBgNVBAcMB0R1cmFuZ28xDjAMBgNVBAoMBURpbmdvMRQw
EgYDVQQLDAtEZXZlbG9wbWVudDEaMBgGA1UEAwwRVGVzdCBJbnRlcm1lZGlhdGUw
ggIiMA0GCSqGSIb3DQEBAQUAA4ICDwAwggIKAoICAQDUKGppcLde157CDN0XK785
8xI4tL7ze49Yo/UKGWskHPNudCatx5IaiAMZt64YDBv+CndgQsoGRyatVul//OR0
bkkrI6RQ0zzZvisqAPbvb4rSJVBtW60vaHsfc3eBIHNPJpW8bqMsJLI/wnAGAk3J
98lkaHE2VNnVwZdCRGbJ2+iTNJ1mnDqQBKiMfk5l5yRWZQwVv+/APD0Ec5D/euKu
fHvP9i02in/AAoRg71T5cOTNBnVC7hNn5tKKWasff7CAv/Q/DMKGAJrCdAFUEHQw
DYGx10nWpAx1r1DmLy95deWyNwi2MAGrsHO7TGflk46UK43F9FyqiZqyJ1JLshkn
oOyGVi9MteQyWp0bmJHKkmfEjhq6n1+SE7bqxIYiHEeeM8JSMzwd8JtFk7VFSAu1
g+2VVfgOs+wK/OpuM+EitjmML99Nr5ZfP55kdlc+NuXk3kT6/xewntb16E+hXQf/
pNUM/XsT8TptKN+uqKVTwRwtDvrRHZ/ZoXkh1yOdZowQEXioDJpa9OrxrAdezCL6
NhoVbvd7TET8xK5FB0oJDKCPmnB4rDtcG19TOBqk40Bj9FDebdkdaldTZarqrPhv
7ILy3pqBbAJt+wO5wVJl9ucuFrUMxt/bgTITc7sRRvSRTWB/YiLix5+Afj1DWrkI
5XukiEPpIMchooI9swUtiQIDAQABo1AwTjAMBgNVHRMEBTADAQH/MB0GA1UdDgQW
BBSQNvb5e+FPn/QXX0qHW1s2xStGbzAfBgNVHSMEGDAWgBRBaaL+ivnFEkfwB44A
5j7t5jxWSzANBgkqhkiG9w0BAQsFAAOCAgEAxwXzftjSBheZgAv2p2yiNawFOcxo
EqnSAhVa07OYmDQdO6g1vRucrN1wKhoMUc6Y+jTjueoYQIqqCZDYt7TISafaaDGz
tqqy6YKrX4i10Mne98H9sfXxroeN2Exw5QMbWm+33G/W3iAzWiCcJYRuQbazXFm/
qvcugVgJsHH2tUWVDS6WllEMyQcwY1TpGQQfjNn239JBiKwBOxQSauhozxF/dJpb
LceqLR9/zOY5tp/Ll/wD7+wStT2tL36U5MIHpAle1afL5uMhxwICN0yk6TIIpbP4
X6xkBnrjdYlhdTwJEmsOc1Ny1MIKbAlsXsSpvD4C8OV+leGsDyKyxlhKvz0P7Hsj
+oijGGiXFtz9Q8wgyCXCXx8GQilPVHRCz8e6chaVDriMsTUm0hFjmCI1ncJgf7Pc
xwdVatCpdDNblMFHbFIVIXZZsxRYOlHSVV0VRfMKmGn9zUmEa5vW1BVg9AkmtGiJ
dzhevvRrmwQPGDG7HUMCoYmwD18/Jp9N9xF3G4AMt3ihcqSDZgGleKPuORxwtugM
tTBS/46nBuvvgsUba2ASOnszEw6BaTTBE7yKDXMHSrovqnT/ObPha5SNcCC92v2z
uLHyU7JzzLyzhgqqi/ZQ9Nwy2DyK1uTTfr3Bik0keD8kw9qKeeREYTcwAGSxLBya
DJoSX+eu1MKZbPM=
-----END CERTIFICATE-----
