Certificate:
    Data:
        Version: 3 (0x2)
        Serial Number: 2 (0x2)
        Signature Algorithm: sha256WithRSAEncryption
        Issuer: C=MX, ST=Durango, L=Durango, O=Dingo, OU=Development, CN=Test Intermediate
        Validity
            Not Before: Dec  4 03:46:04 2025 GMT
            Not After : Sep  3 03:46:04 2035 GMT
        Subject: C=MX, ST=Durango, L=Durango, O=Dingo, OU=Development, CN=Test Server
        Subject Public Key Info:
            Public Key Algorithm: rsaEncryption
                Public-Key: (4096 bit)
                Modulus:
                    00:98:f5:79:29:5e:ca:1d:38:37:ec:4a:da:c0:ed:
                    4f:bc:72:e4:e4:7f:1e:6b:eb:7c:18:16:d5:19:64:
                    42:89:a6:d5:e1:11:dd:e3:2f:f5:1d:ca:6a:01:3a:
                    a1:78:f2:43:d7:7b:5e:2e:7d:77:7e:d2:02:cf:70:
                    1f:88:f4:db:0e:8c:09:c6:61:e9:c8:b9:36:03:45:
                    c8:31:77:6c:45:fa:5a:d6:4c:b1:88:e5:e0:40:e5:
                    9f:ff:77:74:ba:94:80:ba:77:78:78:39:90:3c:a5:
                    30:41:65:35:07:4c:21:3c:04:77:a3:fe:1c:8c:6c:
                    34:20:d4:84:7b:98:ed:ab:e7:33:0d:09:8f:68:28:
                    34:79:5d:da:ed:ac:e1:00:a6:95:29:49:87:10:62:
                    8b:1f:17:e5:5f:9f:ad:0b:64:8f:96:28:a8:4e:44:
                    53:8c:86:3c:be:3d:31:66:a5:f1:ef:e3:04:e9:91:
                    44:e9:20:5a:51:88:4f:1b:25:af:a4:2d:31:d1:ab:
                    8d:b5:53:2c:a4:62:2c:d7:c2:82:a3:25:9c:9b:90:
                    d9:a5:be:a0:db:26:ac:00:df:46:ab:35:3e:ad:d6:
                    3f:dd:6c:7d:48:9e:85:ee:8e:3f:3f:c4:d1:29:fa:
                    a2:f4:b5:31:26:27:5f:ad:de:ad:92:b6:59:23:77:
                    53:0c:39:8f:01:f0:82:fe:25:30:e9:1d:e5:b1:8f:
                    0c:27:f1:ec:4c:f9:f0:98:af:81:01:1e:f8:69:7e:
                    03:bb:d3:e7:25:e0:05:45:e9:a2:3d:c3:e0:73:52:
                    f4:fa:a3:c9:ae:ab:69:cd:76:c2:2f:81:aa:14:ec:
                    17:12:af:87:7f:50:04:a8:19:61:fe:f9:27:02:6c:
                    34:e6:d9:2c:9a:eb:4c:06:6c:7c:47:6c:eb:f1:57:
                    25:a3:f6:c5:f0:21:15:a1:2c:e5:9f:be:d9:6b:5a:
                    08:e7:4a:08:8b:cd:96:47:ea:b2:b9:f7:83:16:fc:
                    5f:9d:13:45:dc:3c:ea:f6:e4:fd:dd:76:9f:cf:14:
                    61:98:72:18:b2:d8:cc:4f:b4:3d:a7:86:33:ee:00:
                    86:d2:3a:7c:0d:22:68:5b:24:ac:cd:87:8b:1e:77:
                    e7:da:c0:2a:8a:09:47:38:9b:90:6a:b0:25:36:30:
                    02:da:40:b9:53:dc:62:c9:c4:c2:85:70:f6:40:86:
                    43:25:19:fa:7b:a0:4e:27:30:4e:24:24:af:c7:dd:
                    9d:5e:4d:ba:40:5b:82:49:d5:d2:a9:68:a8:9b:88:
                    6b:98:6f:e7:95:9a:f8:55:d7:88:5b:69:eb:52:cc:
                    43:34:f5:47:2b:67:01:2a:32:43:d1:14:bd:e9:87:
                    2c:c7:af
                Exponent: 65537 (0x10001)
        X509v3 extensions:
            X509v3 Subject Key Identifier: 
                F3:E0:12:E9:6E:1B:0B:7F:63:EF:05:AD:94:21:7A:5A:96:E7:1A:A6
            X509v3 Authority Key Identifier: 
                90:36:F6:F9:7B:E1:4F:9F:F4:17:5F:4A:87:5B:5B:36:C5:2B:46:6F
    Signature Algorithm: sha256WithRSAEncryption
    Signature Value:
        c1:51:0e:89:c2:fe:93:02:2c:17:c2:f1:ca:33:05:29:3a:af:
        97:76:73:94:26:5f:49:b5:b6:04:3c:a8:30:90:dc:c2:8f:27:
        69:a4:b6:f9:c6:b2:4a:5b:be:27:a9:fb:f6:d8:c3:86:6a:2f:
        b2:3e:9c:97:66:ee:96:9a:58:22:5c:22:db:e8:5e:6d:08:67:
        01:00:49:27:6a:80:93:41:bc:04:b0:c8:00:fb:4c:fa:2a:29:
        b4:e7:bb:86:1e:a9:4e:6b:05:65:23:0e:68:75:f2:14:4c:49:
        42:26:19:32:bb:94:2d:32:b9:c4:1c:89:55:8e:05:f2:be:b9:
        b1:b7:39:07:0d:90:92:6f:b4:4b:14:4f:6a:34:c7:a4:03:60:
        a3:9e:3d:9f:5f:c3:95:0b:c6:5f:0b:cb:b7:c4:6d:94:a4:28:
        4e:33:54:1b:49:a0:52:2d:b4:be:04:4d:06:b9:da:29:74:6e:
        ab:ca:35:a1:eb:8a:9f:e7:69:7a:e4:75:d1:f9:34:97:fc:2a:
        70:7b:75:32:37:f2:96:5a:0c:8a:db:f8:25:a0:95:58:ee:6e:
        39:9e:a3:ac:dc:b9:73:38:27:2b:f7:46:20:4f:1a:27:60:2d:
        4f:54:6f:0e:5f:ae:fc:51:d4:5c:93:e1:06:ba:59:d4:1b:fe:
        a4:20:67:ac:14:d8:6e:ab:5e:b2:5f:35:94:f4:c4:9c:47:52:
        20:48:af:54:72:e2:1e:cb:17:30:db:02:2c:8b:3e:4d:52:cd:
        11:99:59:e7:61:19:0d:5e:72:21:87:c4:e6:69:3c:00:c4:48:
        18:f4:2c:ba:5b:0c:e0:a2:dc:fa:24:1f:81:1e:4f:e2:5d:c2:
        c2:6c:24:17:47:38:f6:73:7b:30:08:80:8e:80:b7:c8:b2:ad:
        45:64:c7:7b:c3:54:89:64:72:fa:9f:07:80:e7:a8:af:d3:1e:
        41:6a:5d:e8:c8:c2:e2:94:08:20:a7:c5:b1:81:ba:79:d4:ea:
        9e:02:42:6c:94:c2:55:31:d8:fa:2a:44:54:5f:1b:ad:27:2c:
        ea:5e:b7:ce:a1:6e:20:e6:98:62:d9:23:0d:5a:b9:a1:8b:77:
        68:8a:2d:7f:b8:05:ef:ba:d0:90:25:8d:36:06:20:10:79:4d:
        97:5b:35:ce:1e:ac:18:66:88:8f:df:ce:36:cd:37:89:4e:20:
        77:f3:a8:a8:e1:bc:75:bc:c9:8c:e7:79:2f:44:0d:fb:82:25:
        ff:27:aa:3a:de:d8:f4:77:66:44:bf:ff:01:d7:5c:85:c2:53:
        07:55:26:70:01:ec:a3:f8:07:59:b8:dc:5f:20:22:89:98:69:
        b7:5a:f7:86:28:78:17:47
-----BEGIN CERTIFICATE-----
MIIFnTCCA4WgAwIBAgIBAjANBgkqhkiG9w0BAQsFADBzMQswCQYDVQQGEwJNWDEQ
MA4GA1UECAwHRHVyYW5nbzEQMA4GA1UEBwwHRHVyYW5nbzEOMAwGA1UECgwFRGlu
Z28xFDASBgNVBAsMC0RldmVsb3BtZW50MRowGAYDVQQDDBFUZXN0IEludGVybWVk
aWF0ZTAeFw0yNTEyMDQwMzQ2MDRaFw0zNTA5MDMwMzQ2MDRaMG0xCzAJBgNVBAYT
Ak1YMRAwDgYDVQQIDAdEdXJhbmdvMRAwDgYDVQQHDAdEdXJhbmdvMQ4wDAYDVQQK
DAVEaW5nbzEUMBIGA1UECwwLRGV2ZWxvcG1lbnQxFDASBgNVBAMMC1Rlc3QgU2Vy
dmVyMIICIjANBgkqhkiG9w0BAQEFAAOCAg8AMIICCgKCAgEAmPV5KV7KHTg37Era
wO1PvHLk5H8ea+t8GBbVGWRCiabV4RHd4y/1HcpqATqhePJD13teLn13ftICz3Af
iPTbDowJxmHpyLk2A0XIMXdsRfpa1kyxiOXgQOWf/3d0upSAund4eDmQPKUwQWU1
B0whPAR3o/4cjGw0INSEe5jtq+czDQmPaCg0eV3a7azhAKaVKUmHEGKLHxflX5+t
C2SPliioTkRTjIY8vj0xZqXx7+ME6ZFE6SBaUYhPGyWvpC0x0auNtVMspGIs18KC
oyWcm5DZpb6g2yasAN9GqzU+rdY/3Wx9SJ6F7o4/P8TRKfqi9LUxJidfrd6tkrZZ
I3dTDDmPAfCC/iUw6R3lsY8MJ/HsTPnwmK+BAR74aX4Du9PnJeAFRemiPcPgc1L0
+qPJrqtpzXbCL4GqFOwXEq+Hf1AEqBlh/vknAmw05tksmutMBmx8R2zr8Vclo/bF
8CEVoSzln77Za1oI50oIi82WR+qyufeDFvxfnRNF3Dzq9uT93XafzxRhmHIYstjM
T7Q9p4Yz7gCG0jp8DSJoWySszYeLHnfn2sAqiglHOJuQarAlNjAC2kC5U9xiycTC
hXD2QIZDJRn6e6BOJzBOJCSvx92dXk26QFuCSdXSqWiom4hrmG/nlZr4VdeIW2nr
UsxDNPVHK2cBKjJD0RS96Ycsx68CAwEAAaNCMEAwHQYDVR0OBBYEFPPgEuluGwt/
Y+8FrZQhelqW5xqmMB8GA1UdIwQYMBaAFJA29vl74U+f9BdfSodbWzbFK0ZvMA0G
CSqGSIb3DQEBCwUAA4ICAQDBUQ6Jwv6TAiwXwvHKMwUpOq+XdnOUJl9JtbYEPKgw
kNzCjydppLb5xrJKW74nqfv22MOGai+yPpyXZu6WmlgiXCLb6F5tCGcBAEknaoCT
QbwEsMgA+0z6Kim057uGHqlOawVlIw5odfIUTElCJhkyu5QtMrnEHIlVjgXyvrmx
tzkHDZCSb7RLFE9qNMekA2Cjnj2fX8OVC8ZfC8u3xG2UpChOM1QbSaBSLbS+BE0G
udopdG6ryjWh64qf52l65HXR+TSX/Cpwe3UyN/KWWgyK2/gloJVY7m45nqOs3Llz
OCcr90YgTxonYC1PVG8OX678UdRck+EGulnUG/6kIGesFNhuq16yXzWU9MScR1Ig
SK9UcuIeyxcw2wIsiz5NUs0RmVnnYRkNXnIhh8TmaTwAxEgY9Cy6Wwzgotz6JB+B
Hk/iXcLCbCQXRzj2c3swCICOgLfIsq1FZMd7w1SJZHL6nweA56iv0x5Bal3oyMLi
lAggp8Wxgbp51OqeAkJslMJVMdj6KkRUXxutJyzqXrfOoW4g5phi2SMNWrmhi3do
ii1/uAXvutCQJY02BiAQeU2XWzXOHqwYZoiP3842zTeJTiB386io4bx1vMmM53kv
RA37giX/J6o63tj0d2ZEv/8B11yFwlMHVSZwAeyj+AdZuNxfICKJmGm3WveGKHgX
Rw==
-----END CERTIFICATE-----
